(dp0
S'AXTI'
p1
(lp2
(lp3
S'AMD'
p4
aF0.236
aa(lp5
S'AFOP'
p6
aF0.184
aa(lp7
S'ALTR'
p8
aF0.247
aa(lp9
S'AMKR'
p10
aF0.207
aa(lp11
S'ANAD'
p12
aF0.248
aa(lp13
S'ADI'
p14
aF0.2
aa(lp15
S'AMAT'
p16
aF0.197
aa(lp17
S'AMCC'
p18
aF0.242
aa(lp19
S'ATML'
p20
aF0.197
aa(lp21
S'BRCM'
p22
aF0.196
aa(lp23
S'CCMP'
p24
aF0.202
aa(lp25
S'CEVA'
p26
aF0.179
aa(lp27
S'CRUS'
p28
aF0.217
aa(lp29
S'CREE'
p30
aF0.281
aa(lp31
S'CY'
p32
aF0.232
aa(lp33
S'DIOD'
p34
aF0.242
aa(lp35
S'DSPG'
p36
aF0.215
aa(lp37
S'EMAN'
p38
aF0.242
aa(lp39
S'EMKR'
p40
aF0.267
aa(lp41
S'EXAR'
p42
aF0.225
aa(lp43
S'FCS'
p44
aF0.228
aa(lp45
S'FNSR'
p46
aF0.25
aa(lp47
S'FORM'
p48
aF0.184
aa(lp49
S'IDTI'
p50
aF0.195
aa(lp51
S'ISSI'
p52
aF0.234
aa(lp53
S'INTC'
p54
aF0.222
aa(lp55
S'ISIL'
p56
aF0.194
aa(lp57
S'IXYS'
p58
aF0.257
aa(lp59
S'KOPN'
p60
aF0.261
aa(lp61
S'LSCC'
p62
aF0.193
aa(lp63
S'LPTH'
p64
aF0.247
aa(lp65
S'LLTC'
p66
aF0.228
aa(lp67
S'MXIM'
p68
aF0.242
aa(lp69
S'MCHP'
p70
aF0.239
aa(lp71
S'MU'
p72
aF0.218
aa(lp73
S'MSCC'
p74
aF0.235
aa(lp75
S'MOSY'
p76
aF0.232
aa(lp77
S'MRVC'
p78
aF0.233
aa(lp79
S'NVDA'
p80
aF0.183
aa(lp81
S'OCLR'
p82
aF0.173
aa(lp83
S'OVTI'
p84
aF0.236
aa(lp85
S'ON'
p86
aF0.218
aa(lp87
S'OSIS'
p88
aF0.196
aa(lp89
S'PLAB'
p90
aF0.143
aa(lp91
S'PXLW'
p92
aF0.18
aa(lp93
S'PMCS'
p94
aF0.197
aa(lp95
S'POWI'
p96
aF0.194
aa(lp97
S'QUIK'
p98
aF0.214
aa(lp99
S'RMBS'
p100
aF0.225
aa(lp101
S'SMTC'
p102
aF0.249
aa(lp103
S'SIGM'
p104
aF0.19
aa(lp105
S'SLAB'
p106
aF0.226
aa(lp107
S'SWKS'
p108
aF0.229
aa(lp109
S'SUNE'
p110
aF0.243
aa(lp111
S'TSRA'
p112
aF0.136
aa(lp113
S'TXN'
p114
aF0.141
aa(lp115
S'VIAV'
p116
aF0.232
aa(lp117
S'XLNX'
p118
aF0.225
aasg46
(lp119
(lp120
g4
aF0.243
aa(lp121
g6
aF0.208
aa(lp122
g8
aF0.239
aa(lp123
g10
aF0.199
aa(lp124
g12
aF0.282
aa(lp125
g14
aF0.188
aa(lp126
g16
aF0.156
aa(lp127
g18
aF0.292
aa(lp128
g20
aF0.221
aa(lp129
g1
aF0.25
aa(lp130
g22
aF0.255
aa(lp131
g24
aF0.193
aa(lp132
g26
aF0.197
aa(lp133
g28
aF0.277
aa(lp134
g30
aF0.282
aa(lp135
g32
aF0.271
aa(lp136
g34
aF0.241
aa(lp137
g36
aF0.277
aa(lp138
g38
aF0.235
aa(lp139
g40
aF0.313
aa(lp140
g42
aF0.294
aa(lp141
g44
aF0.268
aa(lp142
g48
aF0.15
aa(lp143
g50
aF0.203
aa(lp144
g52
aF0.203
aa(lp145
g54
aF0.271
aa(lp146
g56
aF0.206
aa(lp147
g58
aF0.263
aa(lp148
g60
aF0.197
aa(lp149
g62
aF0.186
aa(lp150
g64
aF0.308
aa(lp151
g66
aF0.194
aa(lp152
g68
aF0.235
aa(lp153
g70
aF0.284
aa(lp154
g72
aF0.225
aa(lp155
g74
aF0.264
aa(lp156
g76
aF0.258
aa(lp157
g78
aF0.362
aa(lp158
g80
aF0.171
aa(lp159
g82
aF0.181
aa(lp160
g84
aF0.238
aa(lp161
g86
aF0.223
aa(lp162
g88
aF0.218
aa(lp163
g90
aF0.124
aa(lp164
g92
aF0.178
aa(lp165
g94
aF0.255
aa(lp166
g96
aF0.179
aa(lp167
g98
aF0.187
aa(lp168
g100
aF0.266
aa(lp169
g102
aF0.265
aa(lp170
g104
aF0.191
aa(lp171
g106
aF0.304
aa(lp172
g108
aF0.215
aa(lp173
g110
aF0.238
aa(lp174
g112
aF0.134
aa(lp175
g114
aF0.15
aa(lp176
g116
aF0.319
aa(lp177
g118
aF0.227
aasg60
(lp178
(lp179
g4
aF0.226
aa(lp180
g6
aF0.2
aa(lp181
g8
aF0.205
aa(lp182
g10
aF0.215
aa(lp183
g12
aF0.26
aa(lp184
g14
aF0.222
aa(lp185
g16
aF0.178
aa(lp186
g18
aF0.208
aa(lp187
g20
aF0.214
aa(lp188
g1
aF0.261
aa(lp189
g22
aF0.177
aa(lp190
g24
aF0.202
aa(lp191
g26
aF0.186
aa(lp192
g28
aF0.182
aa(lp193
g30
aF0.254
aa(lp194
g32
aF0.205
aa(lp195
g34
aF0.235
aa(lp196
g36
aF0.2
aa(lp197
g38
aF0.233
aa(lp198
g40
aF0.218
aa(lp199
g42
aF0.194
aa(lp200
g44
aF0.204
aa(lp201
g46
aF0.197
aa(lp202
g48
aF0.178
aa(lp203
g50
aF0.185
aa(lp204
g52
aF0.222
aa(lp205
g54
aF0.189
aa(lp206
g56
aF0.198
aa(lp207
g58
aF0.253
aa(lp208
g62
aF0.171
aa(lp209
g64
aF0.202
aa(lp210
g66
aF0.192
aa(lp211
g68
aF0.224
aa(lp212
g70
aF0.216
aa(lp213
g72
aF0.196
aa(lp214
g74
aF0.215
aa(lp215
g76
aF0.226
aa(lp216
g78
aF0.201
aa(lp217
g80
aF0.178
aa(lp218
g82
aF0.188
aa(lp219
g84
aF0.231
aa(lp220
g86
aF0.22
aa(lp221
g88
aF0.173
aa(lp222
g90
aF0.155
aa(lp223
g92
aF0.199
aa(lp224
g94
aF0.183
aa(lp225
g96
aF0.188
aa(lp226
g98
aF0.189
aa(lp227
g100
aF0.22
aa(lp228
g102
aF0.233
aa(lp229
g104
aF0.181
aa(lp230
g106
aF0.218
aa(lp231
g108
aF0.239
aa(lp232
g110
aF0.213
aa(lp233
g112
aF0.167
aa(lp234
g114
aF0.159
aa(lp235
g116
aF0.185
aa(lp236
g118
aF0.199
aasg110
(lp237
(lp238
g4
aF0.264
aa(lp239
g6
aF0.18
aa(lp240
g8
aF0.237
aa(lp241
g10
aF0.218
aa(lp242
g12
aF0.227
aa(lp243
g14
aF0.195
aa(lp244
g16
aF0.192
aa(lp245
g18
aF0.227
aa(lp246
g20
aF0.205
aa(lp247
g1
aF0.243
aa(lp248
g22
aF0.167
aa(lp249
g24
aF0.224
aa(lp250
g26
aF0.167
aa(lp251
g28
aF0.23
aa(lp252
g30
aF0.256
aa(lp253
g32
aF0.249
aa(lp254
g34
aF0.255
aa(lp255
g36
aF0.232
aa(lp256
g38
aF0.23
aa(lp257
g40
aF0.235
aa(lp258
g42
aF0.225
aa(lp259
g44
aF0.263
aa(lp260
g46
aF0.238
aa(lp261
g48
aF0.18
aa(lp262
g50
aF0.188
aa(lp263
g52
aF0.211
aa(lp264
g54
aF0.221
aa(lp265
g56
aF0.192
aa(lp266
g58
aF0.244
aa(lp267
g60
aF0.213
aa(lp268
g62
aF0.195
aa(lp269
g64
aF0.252
aa(lp270
g66
aF0.212
aa(lp271
g68
aF0.239
aa(lp272
g70
aF0.265
aa(lp273
g72
aF0.239
aa(lp274
g74
aF0.273
aa(lp275
g76
aF0.255
aa(lp276
g78
aF0.268
aa(lp277
g80
aF0.166
aa(lp278
g82
aF0.177
aa(lp279
g84
aF0.225
aa(lp280
g86
aF0.237
aa(lp281
g88
aF0.197
aa(lp282
g90
aF0.174
aa(lp283
g92
aF0.168
aa(lp284
g94
aF0.178
aa(lp285
g96
aF0.182
aa(lp286
g98
aF0.186
aa(lp287
g100
aF0.238
aa(lp288
g102
aF0.287
aa(lp289
g104
aF0.208
aa(lp290
g106
aF0.252
aa(lp291
g108
aF0.215
aa(lp292
g112
aF0.136
aa(lp293
g114
aF0.174
aa(lp294
g116
aF0.23
aa(lp295
g118
aF0.223
aasg106
(lp296
(lp297
g4
aF0.26
aa(lp298
g6
aF0.194
aa(lp299
g8
aF0.265
aa(lp300
g10
aF0.237
aa(lp301
g12
aF0.306
aa(lp302
g14
aF0.231
aa(lp303
g16
aF0.165
aa(lp304
g18
aF0.291
aa(lp305
g20
aF0.254
aa(lp306
g1
aF0.226
aa(lp307
g22
aF0.262
aa(lp308
g24
aF0.213
aa(lp309
g26
aF0.234
aa(lp310
g28
aF0.309
aa(lp311
g30
aF0.276
aa(lp312
g32
aF0.28
aa(lp313
g34
aF0.257
aa(lp314
g36
aF0.314
aa(lp315
g38
aF0.241
aa(lp316
g40
aF0.278
aa(lp317
g42
aF0.314
aa(lp318
g44
aF0.283
aa(lp319
g46
aF0.304
aa(lp320
g48
aF0.165
aa(lp321
g50
aF0.228
aa(lp322
g52
aF0.244
aa(lp323
g54
aF0.267
aa(lp324
g56
aF0.232
aa(lp325
g58
aF0.282
aa(lp326
g60
aF0.218
aa(lp327
g62
aF0.203
aa(lp328
g64
aF0.285
aa(lp329
g66
aF0.221
aa(lp330
g68
aF0.27
aa(lp331
g70
aF0.31
aa(lp332
g72
aF0.228
aa(lp333
g74
aF0.265
aa(lp334
g76
aF0.271
aa(lp335
g78
aF0.31
aa(lp336
g80
aF0.189
aa(lp337
g82
aF0.184
aa(lp338
g84
aF0.266
aa(lp339
g86
aF0.252
aa(lp340
g88
aF0.203
aa(lp341
g90
aF0.14
aa(lp342
g92
aF0.199
aa(lp343
g94
aF0.25
aa(lp344
g96
aF0.21
aa(lp345
g98
aF0.207
aa(lp346
g100
aF0.264
aa(lp347
g102
aF0.28
aa(lp348
g104
aF0.218
aa(lp349
g108
aF0.254
aa(lp350
g110
aF0.252
aa(lp351
g112
aF0.157
aa(lp352
g114
aF0.166
aa(lp353
g116
aF0.264
aa(lp354
g118
aF0.257
aasg88
(lp355
(lp356
g4
aF0.191
aa(lp357
g6
aF0.147
aa(lp358
g8
aF0.205
aa(lp359
g10
aF0.16
aa(lp360
g12
aF0.188
aa(lp361
g14
aF0.191
aa(lp362
g16
aF0.149
aa(lp363
g18
aF0.206
aa(lp364
g20
aF0.178
aa(lp365
g1
aF0.196
aa(lp366
g22
aF0.185
aa(lp367
g24
aF0.158
aa(lp368
g26
aF0.157
aa(lp369
g28
aF0.189
aa(lp370
g30
aF0.21
aa(lp371
g32
aF0.205
aa(lp372
g34
aF0.207
aa(lp373
g36
aF0.198
aa(lp374
g38
aF0.2
aa(lp375
g40
aF0.22
aa(lp376
g42
aF0.199
aa(lp377
g44
aF0.213
aa(lp378
g46
aF0.218
aa(lp379
g48
aF0.144
aa(lp380
g50
aF0.176
aa(lp381
g52
aF0.179
aa(lp382
g54
aF0.206
aa(lp383
g56
aF0.18
aa(lp384
g58
aF0.201
aa(lp385
g60
aF0.173
aa(lp386
g62
aF0.158
aa(lp387
g64
aF0.208
aa(lp388
g66
aF0.18
aa(lp389
g68
aF0.198
aa(lp390
g70
aF0.203
aa(lp391
g72
aF0.184
aa(lp392
g74
aF0.206
aa(lp393
g76
aF0.182
aa(lp394
g78
aF0.225
aa(lp395
g80
aF0.145
aa(lp396
g82
aF0.16
aa(lp397
g84
aF0.197
aa(lp398
g86
aF0.198
aa(lp399
g90
aF0.121
aa(lp400
g92
aF0.15
aa(lp401
g94
aF0.182
aa(lp402
g96
aF0.161
aa(lp403
g98
aF0.159
aa(lp404
g100
aF0.171
aa(lp405
g102
aF0.217
aa(lp406
g104
aF0.158
aa(lp407
g106
aF0.203
aa(lp408
g108
aF0.184
aa(lp409
g110
aF0.197
aa(lp410
g112
aF0.114
aa(lp411
g114
aF0.126
aa(lp412
g116
aF0.22
aa(lp413
g118
aF0.182
aasg24
(lp414
(lp415
g4
aF0.225
aa(lp416
g6
aF0.207
aa(lp417
g8
aF0.206
aa(lp418
g10
aF0.226
aa(lp419
g12
aF0.211
aa(lp420
g14
aF0.199
aa(lp421
g16
aF0.221
aa(lp422
g18
aF0.188
aa(lp423
g20
aF0.204
aa(lp424
g1
aF0.202
aa(lp425
g22
aF0.174
aa(lp426
g26
aF0.182
aa(lp427
g28
aF0.186
aa(lp428
g30
aF0.214
aa(lp429
g32
aF0.197
aa(lp430
g34
aF0.215
aa(lp431
g36
aF0.191
aa(lp432
g38
aF0.185
aa(lp433
g40
aF0.189
aa(lp434
g42
aF0.181
aa(lp435
g44
aF0.199
aa(lp436
g46
aF0.193
aa(lp437
g48
aF0.175
aa(lp438
g50
aF0.188
aa(lp439
g52
aF0.212
aa(lp440
g54
aF0.177
aa(lp441
g56
aF0.207
aa(lp442
g58
aF0.211
aa(lp443
g60
aF0.202
aa(lp444
g62
aF0.178
aa(lp445
g64
aF0.194
aa(lp446
g66
aF0.18
aa(lp447
g68
aF0.215
aa(lp448
g70
aF0.208
aa(lp449
g72
aF0.195
aa(lp450
g74
aF0.199
aa(lp451
g76
aF0.211
aa(lp452
g78
aF0.194
aa(lp453
g80
aF0.166
aa(lp454
g82
aF0.192
aa(lp455
g84
aF0.207
aa(lp456
g86
aF0.207
aa(lp457
g88
aF0.158
aa(lp458
g90
aF0.178
aa(lp459
g92
aF0.188
aa(lp460
g94
aF0.186
aa(lp461
g96
aF0.165
aa(lp462
g98
aF0.176
aa(lp463
g100
aF0.212
aa(lp464
g102
aF0.213
aa(lp465
g104
aF0.182
aa(lp466
g106
aF0.213
aa(lp467
g108
aF0.216
aa(lp468
g110
aF0.224
aa(lp469
g112
aF0.148
aa(lp470
g114
aF0.168
aa(lp471
g116
aF0.171
aa(lp472
g118
aF0.208
aasg16
(lp473
(lp474
g4
aF0.187
aa(lp475
g6
aF0.16
aa(lp476
g8
aF0.179
aa(lp477
g10
aF0.186
aa(lp478
g12
aF0.182
aa(lp479
g14
aF0.179
aa(lp480
g18
aF0.17
aa(lp481
g20
aF0.173
aa(lp482
g1
aF0.197
aa(lp483
g22
aF0.146
aa(lp484
g24
aF0.221
aa(lp485
g26
aF0.149
aa(lp486
g28
aF0.158
aa(lp487
g30
aF0.184
aa(lp488
g32
aF0.166
aa(lp489
g34
aF0.19
aa(lp490
g36
aF0.151
aa(lp491
g38
aF0.167
aa(lp492
g40
aF0.169
aa(lp493
g42
aF0.153
aa(lp494
g44
aF0.155
aa(lp495
g46
aF0.156
aa(lp496
g48
aF0.182
aa(lp497
g50
aF0.169
aa(lp498
g52
aF0.17
aa(lp499
g54
aF0.162
aa(lp500
g56
aF0.17
aa(lp501
g58
aF0.189
aa(lp502
g60
aF0.178
aa(lp503
g62
aF0.155
aa(lp504
g64
aF0.16
aa(lp505
g66
aF0.151
aa(lp506
g68
aF0.182
aa(lp507
g70
aF0.165
aa(lp508
g72
aF0.166
aa(lp509
g74
aF0.17
aa(lp510
g76
aF0.17
aa(lp511
g78
aF0.162
aa(lp512
g80
aF0.155
aa(lp513
g82
aF0.16
aa(lp514
g84
aF0.178
aa(lp515
g86
aF0.173
aa(lp516
g88
aF0.149
aa(lp517
g90
aF0.161
aa(lp518
g92
aF0.164
aa(lp519
g94
aF0.161
aa(lp520
g96
aF0.149
aa(lp521
g98
aF0.149
aa(lp522
g100
aF0.174
aa(lp523
g102
aF0.186
aa(lp524
g104
aF0.153
aa(lp525
g106
aF0.165
aa(lp526
g108
aF0.169
aa(lp527
g110
aF0.192
aa(lp528
g112
aF0.129
aa(lp529
g114
aF0.15
aa(lp530
g116
aF0.155
aa(lp531
g118
aF0.181
aasg102
(lp532
(lp533
g4
aF0.28
aa(lp534
g6
aF0.202
aa(lp535
g8
aF0.271
aa(lp536
g10
aF0.246
aa(lp537
g12
aF0.259
aa(lp538
g14
aF0.252
aa(lp539
g16
aF0.186
aa(lp540
g18
aF0.277
aa(lp541
g20
aF0.255
aa(lp542
g1
aF0.249
aa(lp543
g22
aF0.213
aa(lp544
g24
aF0.213
aa(lp545
g26
aF0.211
aa(lp546
g28
aF0.26
aa(lp547
g30
aF0.274
aa(lp548
g32
aF0.272
aa(lp549
g34
aF0.3
aa(lp550
g36
aF0.254
aa(lp551
g38
aF0.244
aa(lp552
g40
aF0.236
aa(lp553
g42
aF0.249
aa(lp554
g44
aF0.274
aa(lp555
g46
aF0.265
aa(lp556
g48
aF0.193
aa(lp557
g50
aF0.234
aa(lp558
g52
aF0.256
aa(lp559
g54
aF0.231
aa(lp560
g56
aF0.24
aa(lp561
g58
aF0.29
aa(lp562
g60
aF0.233
aa(lp563
g62
aF0.212
aa(lp564
g64
aF0.243
aa(lp565
g66
aF0.265
aa(lp566
g68
aF0.306
aa(lp567
g70
aF0.295
aa(lp568
g72
aF0.24
aa(lp569
g74
aF0.315
aa(lp570
g76
aF0.262
aa(lp571
g78
aF0.273
aa(lp572
g80
aF0.192
aa(lp573
g82
aF0.202
aa(lp574
g84
aF0.246
aa(lp575
g86
aF0.279
aa(lp576
g88
aF0.217
aa(lp577
g90
aF0.178
aa(lp578
g92
aF0.194
aa(lp579
g94
aF0.222
aa(lp580
g96
aF0.226
aa(lp581
g98
aF0.217
aa(lp582
g100
aF0.27
aa(lp583
g104
aF0.21
aa(lp584
g106
aF0.28
aa(lp585
g108
aF0.245
aa(lp586
g110
aF0.287
aa(lp587
g112
aF0.162
aa(lp588
g114
aF0.192
aa(lp589
g116
aF0.232
aa(lp590
g118
aF0.25
aasg6
(lp591
(lp592
g4
aF0.189
aa(lp593
g8
aF0.199
aa(lp594
g10
aF0.196
aa(lp595
g12
aF0.204
aa(lp596
g14
aF0.189
aa(lp597
g16
aF0.16
aa(lp598
g18
aF0.196
aa(lp599
g20
aF0.178
aa(lp600
g1
aF0.184
aa(lp601
g22
aF0.17
aa(lp602
g24
aF0.207
aa(lp603
g26
aF0.183
aa(lp604
g28
aF0.167
aa(lp605
g30
aF0.179
aa(lp606
g32
aF0.176
aa(lp607
g34
aF0.181
aa(lp608
g36
aF0.173
aa(lp609
g38
aF0.169
aa(lp610
g40
aF0.163
aa(lp611
g42
aF0.179
aa(lp612
g44
aF0.16
aa(lp613
g46
aF0.208
aa(lp614
g48
aF0.173
aa(lp615
g50
aF0.18
aa(lp616
g52
aF0.189
aa(lp617
g54
aF0.149
aa(lp618
g56
aF0.174
aa(lp619
g58
aF0.193
aa(lp620
g60
aF0.2
aa(lp621
g62
aF0.16
aa(lp622
g64
aF0.18
aa(lp623
g66
aF0.165
aa(lp624
g68
aF0.21
aa(lp625
g70
aF0.185
aa(lp626
g72
aF0.181
aa(lp627
g74
aF0.182
aa(lp628
g76
aF0.178
aa(lp629
g78
aF0.206
aa(lp630
g80
aF0.158
aa(lp631
g82
aF0.221
aa(lp632
g84
aF0.199
aa(lp633
g86
aF0.186
aa(lp634
g88
aF0.147
aa(lp635
g90
aF0.156
aa(lp636
g92
aF0.177
aa(lp637
g94
aF0.196
aa(lp638
g96
aF0.148
aa(lp639
g98
aF0.173
aa(lp640
g100
aF0.199
aa(lp641
g102
aF0.202
aa(lp642
g104
aF0.179
aa(lp643
g106
aF0.194
aa(lp644
g108
aF0.207
aa(lp645
g110
aF0.18
aa(lp646
g112
aF0.144
aa(lp647
g114
aF0.178
aa(lp648
g116
aF0.165
aa(lp649
g118
aF0.186
aasg68
(lp650
(lp651
g4
aF0.259
aa(lp652
g6
aF0.21
aa(lp653
g8
aF0.257
aa(lp654
g10
aF0.233
aa(lp655
g12
aF0.257
aa(lp656
g14
aF0.267
aa(lp657
g16
aF0.182
aa(lp658
g18
aF0.25
aa(lp659
g20
aF0.263
aa(lp660
g1
aF0.242
aa(lp661
g22
aF0.208
aa(lp662
g24
aF0.215
aa(lp663
g26
aF0.195
aa(lp664
g28
aF0.252
aa(lp665
g30
aF0.262
aa(lp666
g32
aF0.263
aa(lp667
g34
aF0.27
aa(lp668
g36
aF0.243
aa(lp669
g38
aF0.244
aa(lp670
g40
aF0.225
aa(lp671
g42
aF0.246
aa(lp672
g44
aF0.266
aa(lp673
g46
aF0.235
aa(lp674
g48
aF0.183
aa(lp675
g50
aF0.235
aa(lp676
g52
aF0.254
aa(lp677
g54
aF0.228
aa(lp678
g56
aF0.226
aa(lp679
g58
aF0.288
aa(lp680
g60
aF0.224
aa(lp681
g62
aF0.213
aa(lp682
g64
aF0.236
aa(lp683
g66
aF0.273
aa(lp684
g70
aF0.283
aa(lp685
g72
aF0.236
aa(lp686
g74
aF0.317
aa(lp687
g76
aF0.245
aa(lp688
g78
aF0.249
aa(lp689
g80
aF0.178
aa(lp690
g82
aF0.187
aa(lp691
g84
aF0.256
aa(lp692
g86
aF0.271
aa(lp693
g88
aF0.198
aa(lp694
g90
aF0.181
aa(lp695
g92
aF0.184
aa(lp696
g94
aF0.211
aa(lp697
g96
aF0.214
aa(lp698
g98
aF0.209
aa(lp699
g100
aF0.27
aa(lp700
g102
aF0.306
aa(lp701
g104
aF0.199
aa(lp702
g106
aF0.27
aa(lp703
g108
aF0.243
aa(lp704
g110
aF0.239
aa(lp705
g112
aF0.163
aa(lp706
g114
aF0.191
aa(lp707
g116
aF0.22
aa(lp708
g118
aF0.251
aasg50
(lp709
(lp710
g4
aF0.257
aa(lp711
g6
aF0.18
aa(lp712
g8
aF0.251
aa(lp713
g10
aF0.214
aa(lp714
g12
aF0.227
aa(lp715
g14
aF0.231
aa(lp716
g16
aF0.169
aa(lp717
g18
aF0.25
aa(lp718
g20
aF0.249
aa(lp719
g1
aF0.195
aa(lp720
g22
aF0.244
aa(lp721
g24
aF0.188
aa(lp722
g26
aF0.208
aa(lp723
g28
aF0.211
aa(lp724
g30
aF0.193
aa(lp725
g32
aF0.253
aa(lp726
g34
aF0.222
aa(lp727
g36
aF0.218
aa(lp728
g38
aF0.184
aa(lp729
g40
aF0.19
aa(lp730
g42
aF0.24
aa(lp731
g44
aF0.209
aa(lp732
g46
aF0.203
aa(lp733
g48
aF0.173
aa(lp734
g52
aF0.246
aa(lp735
g54
aF0.213
aa(lp736
g56
aF0.252
aa(lp737
g58
aF0.232
aa(lp738
g60
aF0.185
aa(lp739
g62
aF0.216
aa(lp740
g64
aF0.178
aa(lp741
g66
aF0.219
aa(lp742
g68
aF0.235
aa(lp743
g70
aF0.22
aa(lp744
g72
aF0.219
aa(lp745
g74
aF0.21
aa(lp746
g76
aF0.204
aa(lp747
g78
aF0.209
aa(lp748
g80
aF0.195
aa(lp749
g82
aF0.187
aa(lp750
g84
aF0.211
aa(lp751
g86
aF0.232
aa(lp752
g88
aF0.176
aa(lp753
g90
aF0.157
aa(lp754
g92
aF0.208
aa(lp755
g94
aF0.245
aa(lp756
g96
aF0.202
aa(lp757
g98
aF0.219
aa(lp758
g100
aF0.225
aa(lp759
g102
aF0.234
aa(lp760
g104
aF0.204
aa(lp761
g106
aF0.228
aa(lp762
g108
aF0.213
aa(lp763
g110
aF0.188
aa(lp764
g112
aF0.147
aa(lp765
g114
aF0.177
aa(lp766
g116
aF0.176
aa(lp767
g118
aF0.232
aasg116
(lp768
(lp769
g4
aF0.219
aa(lp770
g6
aF0.165
aa(lp771
g8
aF0.222
aa(lp772
g10
aF0.181
aa(lp773
g12
aF0.247
aa(lp774
g14
aF0.172
aa(lp775
g16
aF0.155
aa(lp776
g18
aF0.274
aa(lp777
g20
aF0.191
aa(lp778
g1
aF0.232
aa(lp779
g22
aF0.23
aa(lp780
g24
aF0.171
aa(lp781
g26
aF0.166
aa(lp782
g28
aF0.257
aa(lp783
g30
aF0.265
aa(lp784
g32
aF0.252
aa(lp785
g34
aF0.222
aa(lp786
g36
aF0.25
aa(lp787
g38
aF0.235
aa(lp788
g40
aF0.328
aa(lp789
g42
aF0.273
aa(lp790
g44
aF0.252
aa(lp791
g46
aF0.319
aa(lp792
g48
aF0.13
aa(lp793
g50
aF0.176
aa(lp794
g52
aF0.188
aa(lp795
g54
aF0.265
aa(lp796
g56
aF0.183
aa(lp797
g58
aF0.232
aa(lp798
g60
aF0.185
aa(lp799
g62
aF0.156
aa(lp800
g64
aF0.31
aa(lp801
g66
aF0.193
aa(lp802
g68
aF0.22
aa(lp803
g70
aF0.243
aa(lp804
g72
aF0.201
aa(lp805
g74
aF0.251
aa(lp806
g76
aF0.231
aa(lp807
g78
aF0.316
aa(lp808
g80
aF0.161
aa(lp809
g82
aF0.176
aa(lp810
g84
aF0.221
aa(lp811
g86
aF0.204
aa(lp812
g88
aF0.22
aa(lp813
g90
aF0.108
aa(lp814
g92
aF0.168
aa(lp815
g94
aF0.234
aa(lp816
g96
aF0.164
aa(lp817
g98
aF0.18
aa(lp818
g100
aF0.215
aa(lp819
g102
aF0.232
aa(lp820
g104
aF0.187
aa(lp821
g106
aF0.264
aa(lp822
g108
aF0.192
aa(lp823
g110
aF0.23
aa(lp824
g112
aF0.107
aa(lp825
g114
aF0.129
aa(lp826
g118
aF0.205
aasg74
(lp827
(lp828
g4
aF0.244
aa(lp829
g6
aF0.182
aa(lp830
g8
aF0.232
aa(lp831
g10
aF0.22
aa(lp832
g12
aF0.267
aa(lp833
g14
aF0.227
aa(lp834
g16
aF0.17
aa(lp835
g18
aF0.253
aa(lp836
g20
aF0.238
aa(lp837
g1
aF0.235
aa(lp838
g22
aF0.189
aa(lp839
g24
aF0.199
aa(lp840
g26
aF0.177
aa(lp841
g28
aF0.252
aa(lp842
g30
aF0.265
aa(lp843
g32
aF0.256
aa(lp844
g34
aF0.288
aa(lp845
g36
aF0.243
aa(lp846
g38
aF0.236
aa(lp847
g40
aF0.251
aa(lp848
g42
aF0.244
aa(lp849
g44
aF0.282
aa(lp850
g46
aF0.264
aa(lp851
g48
aF0.175
aa(lp852
g50
aF0.21
aa(lp853
g52
aF0.206
aa(lp854
g54
aF0.232
aa(lp855
g56
aF0.219
aa(lp856
g58
aF0.287
aa(lp857
g60
aF0.215
aa(lp858
g62
aF0.19
aa(lp859
g64
aF0.262
aa(lp860
g66
aF0.23
aa(lp861
g68
aF0.317
aa(lp862
g70
aF0.296
aa(lp863
g72
aF0.229
aa(lp864
g76
aF0.247
aa(lp865
g78
aF0.279
aa(lp866
g80
aF0.168
aa(lp867
g82
aF0.174
aa(lp868
g84
aF0.233
aa(lp869
g86
aF0.274
aa(lp870
g88
aF0.206
aa(lp871
g90
aF0.161
aa(lp872
g92
aF0.173
aa(lp873
g94
aF0.194
aa(lp874
g96
aF0.187
aa(lp875
g98
aF0.187
aa(lp876
g100
aF0.267
aa(lp877
g102
aF0.315
aa(lp878
g104
aF0.204
aa(lp879
g106
aF0.265
aa(lp880
g108
aF0.209
aa(lp881
g110
aF0.273
aa(lp882
g112
aF0.136
aa(lp883
g114
aF0.186
aa(lp884
g116
aF0.251
aa(lp885
g118
aF0.224
aasg38
(lp886
(lp887
g4
aF0.239
aa(lp888
g6
aF0.169
aa(lp889
g8
aF0.23
aa(lp890
g10
aF0.192
aa(lp891
g12
aF0.232
aa(lp892
g14
aF0.206
aa(lp893
g16
aF0.167
aa(lp894
g18
aF0.226
aa(lp895
g20
aF0.204
aa(lp896
g1
aF0.242
aa(lp897
g22
aF0.201
aa(lp898
g24
aF0.185
aa(lp899
g26
aF0.187
aa(lp900
g28
aF0.229
aa(lp901
g30
aF0.259
aa(lp902
g32
aF0.238
aa(lp903
g34
aF0.227
aa(lp904
g36
aF0.224
aa(lp905
g40
aF0.241
aa(lp906
g42
aF0.222
aa(lp907
g44
aF0.217
aa(lp908
g46
aF0.235
aa(lp909
g48
aF0.159
aa(lp910
g50
aF0.184
aa(lp911
g52
aF0.209
aa(lp912
g54
aF0.232
aa(lp913
g56
aF0.205
aa(lp914
g58
aF0.241
aa(lp915
g60
aF0.233
aa(lp916
g62
aF0.173
aa(lp917
g64
aF0.249
aa(lp918
g66
aF0.2
aa(lp919
g68
aF0.244
aa(lp920
g70
aF0.235
aa(lp921
g72
aF0.211
aa(lp922
g74
aF0.236
aa(lp923
g76
aF0.244
aa(lp924
g78
aF0.227
aa(lp925
g80
aF0.186
aa(lp926
g82
aF0.165
aa(lp927
g84
aF0.245
aa(lp928
g86
aF0.209
aa(lp929
g88
aF0.2
aa(lp930
g90
aF0.129
aa(lp931
g92
aF0.205
aa(lp932
g94
aF0.19
aa(lp933
g96
aF0.202
aa(lp934
g98
aF0.195
aa(lp935
g100
aF0.227
aa(lp936
g102
aF0.244
aa(lp937
g104
aF0.201
aa(lp938
g106
aF0.241
aa(lp939
g108
aF0.206
aa(lp940
g110
aF0.23
aa(lp941
g112
aF0.141
aa(lp942
g114
aF0.152
aa(lp943
g116
aF0.235
aa(lp944
g118
aF0.215
aasg114
(lp945
(lp946
g4
aF0.189
aa(lp947
g6
aF0.178
aa(lp948
g8
aF0.171
aa(lp949
g10
aF0.167
aa(lp950
g12
aF0.15
aa(lp951
g14
aF0.23
aa(lp952
g16
aF0.15
aa(lp953
g18
aF0.152
aa(lp954
g20
aF0.188
aa(lp955
g1
aF0.141
aa(lp956
g22
aF0.13
aa(lp957
g24
aF0.168
aa(lp958
g26
aF0.167
aa(lp959
g28
aF0.168
aa(lp960
g30
aF0.156
aa(lp961
g32
aF0.163
aa(lp962
g34
aF0.182
aa(lp963
g36
aF0.154
aa(lp964
g38
aF0.152
aa(lp965
g40
aF0.135
aa(lp966
g42
aF0.154
aa(lp967
g44
aF0.167
aa(lp968
g46
aF0.15
aa(lp969
g48
aF0.154
aa(lp970
g50
aF0.177
aa(lp971
g52
aF0.176
aa(lp972
g54
aF0.15
aa(lp973
g56
aF0.171
aa(lp974
g58
aF0.185
aa(lp975
g60
aF0.159
aa(lp976
g62
aF0.172
aa(lp977
g64
aF0.144
aa(lp978
g66
aF0.175
aa(lp979
g68
aF0.191
aa(lp980
g70
aF0.192
aa(lp981
g72
aF0.184
aa(lp982
g74
aF0.186
aa(lp983
g76
aF0.162
aa(lp984
g78
aF0.151
aa(lp985
g80
aF0.162
aa(lp986
g82
aF0.162
aa(lp987
g84
aF0.164
aa(lp988
g86
aF0.187
aa(lp989
g88
aF0.126
aa(lp990
g90
aF0.168
aa(lp991
g92
aF0.163
aa(lp992
g94
aF0.133
aa(lp993
g96
aF0.164
aa(lp994
g98
aF0.153
aa(lp995
g100
aF0.187
aa(lp996
g102
aF0.192
aa(lp997
g104
aF0.167
aa(lp998
g106
aF0.166
aa(lp999
g108
aF0.188
aa(lp1000
g110
aF0.174
aa(lp1001
g112
aF0.14
aa(lp1002
g116
aF0.129
aa(lp1003
g118
aF0.175
aasg84
(lp1004
(lp1005
g4
aF0.254
aa(lp1006
g6
aF0.199
aa(lp1007
g8
aF0.262
aa(lp1008
g10
aF0.236
aa(lp1009
g12
aF0.227
aa(lp1010
g14
aF0.228
aa(lp1011
g16
aF0.178
aa(lp1012
g18
aF0.246
aa(lp1013
g20
aF0.234
aa(lp1014
g1
aF0.236
aa(lp1015
g22
aF0.222
aa(lp1016
g24
aF0.207
aa(lp1017
g26
aF0.207
aa(lp1018
g28
aF0.249
aa(lp1019
g30
aF0.242
aa(lp1020
g32
aF0.253
aa(lp1021
g34
aF0.233
aa(lp1022
g36
aF0.25
aa(lp1023
g38
aF0.245
aa(lp1024
g40
aF0.22
aa(lp1025
g42
aF0.24
aa(lp1026
g44
aF0.238
aa(lp1027
g46
aF0.238
aa(lp1028
g48
aF0.178
aa(lp1029
g50
aF0.211
aa(lp1030
g52
aF0.249
aa(lp1031
g54
aF0.235
aa(lp1032
g56
aF0.211
aa(lp1033
g58
aF0.235
aa(lp1034
g60
aF0.231
aa(lp1035
g62
aF0.204
aa(lp1036
g64
aF0.226
aa(lp1037
g66
aF0.223
aa(lp1038
g68
aF0.256
aa(lp1039
g70
aF0.246
aa(lp1040
g72
aF0.237
aa(lp1041
g74
aF0.233
aa(lp1042
g76
aF0.245
aa(lp1043
g78
aF0.235
aa(lp1044
g80
aF0.228
aa(lp1045
g82
aF0.182
aa(lp1046
g86
aF0.238
aa(lp1047
g88
aF0.197
aa(lp1048
g90
aF0.161
aa(lp1049
g92
aF0.224
aa(lp1050
g94
aF0.219
aa(lp1051
g96
aF0.227
aa(lp1052
g98
aF0.215
aa(lp1053
g100
aF0.235
aa(lp1054
g102
aF0.246
aa(lp1055
g104
aF0.238
aa(lp1056
g106
aF0.266
aa(lp1057
g108
aF0.235
aa(lp1058
g110
aF0.225
aa(lp1059
g112
aF0.171
aa(lp1060
g114
aF0.164
aa(lp1061
g116
aF0.221
aa(lp1062
g118
aF0.246
aasg44
(lp1063
(lp1064
g4
aF0.273
aa(lp1065
g6
aF0.16
aa(lp1066
g8
aF0.259
aa(lp1067
g10
aF0.229
aa(lp1068
g12
aF0.246
aa(lp1069
g14
aF0.22
aa(lp1070
g16
aF0.155
aa(lp1071
g18
aF0.256
aa(lp1072
g20
aF0.225
aa(lp1073
g1
aF0.228
aa(lp1074
g22
aF0.211
aa(lp1075
g24
aF0.199
aa(lp1076
g26
aF0.167
aa(lp1077
g28
aF0.263
aa(lp1078
g30
aF0.293
aa(lp1079
g32
aF0.266
aa(lp1080
g34
aF0.262
aa(lp1081
g36
aF0.263
aa(lp1082
g38
aF0.217
aa(lp1083
g40
aF0.261
aa(lp1084
g42
aF0.273
aa(lp1085
g46
aF0.268
aa(lp1086
g48
aF0.165
aa(lp1087
g50
aF0.209
aa(lp1088
g52
aF0.217
aa(lp1089
g54
aF0.264
aa(lp1090
g56
aF0.25
aa(lp1091
g58
aF0.264
aa(lp1092
g60
aF0.204
aa(lp1093
g62
aF0.206
aa(lp1094
g64
aF0.261
aa(lp1095
g66
aF0.242
aa(lp1096
g68
aF0.266
aa(lp1097
g70
aF0.301
aa(lp1098
g72
aF0.245
aa(lp1099
g74
aF0.282
aa(lp1100
g76
aF0.235
aa(lp1101
g78
aF0.271
aa(lp1102
g80
aF0.171
aa(lp1103
g82
aF0.157
aa(lp1104
g84
aF0.238
aa(lp1105
g86
aF0.278
aa(lp1106
g88
aF0.213
aa(lp1107
g90
aF0.14
aa(lp1108
g92
aF0.174
aa(lp1109
g94
aF0.209
aa(lp1110
g96
aF0.203
aa(lp1111
g98
aF0.197
aa(lp1112
g100
aF0.227
aa(lp1113
g102
aF0.274
aa(lp1114
g104
aF0.181
aa(lp1115
g106
aF0.283
aa(lp1116
g108
aF0.219
aa(lp1117
g110
aF0.263
aa(lp1118
g112
aF0.139
aa(lp1119
g114
aF0.167
aa(lp1120
g116
aF0.252
aa(lp1121
g118
aF0.234
aasg54
(lp1122
(lp1123
g4
aF0.293
aa(lp1124
g6
aF0.149
aa(lp1125
g8
aF0.262
aa(lp1126
g10
aF0.188
aa(lp1127
g12
aF0.235
aa(lp1128
g14
aF0.202
aa(lp1129
g16
aF0.162
aa(lp1130
g18
aF0.274
aa(lp1131
g20
aF0.216
aa(lp1132
g1
aF0.222
aa(lp1133
g22
aF0.267
aa(lp1134
g24
aF0.177
aa(lp1135
g26
aF0.213
aa(lp1136
g28
aF0.263
aa(lp1137
g30
aF0.244
aa(lp1138
g32
aF0.272
aa(lp1139
g34
aF0.224
aa(lp1140
g36
aF0.268
aa(lp1141
g38
aF0.232
aa(lp1142
g40
aF0.261
aa(lp1143
g42
aF0.263
aa(lp1144
g44
aF0.264
aa(lp1145
g46
aF0.271
aa(lp1146
g48
aF0.15
aa(lp1147
g50
aF0.213
aa(lp1148
g52
aF0.218
aa(lp1149
g56
aF0.234
aa(lp1150
g58
aF0.239
aa(lp1151
g60
aF0.189
aa(lp1152
g62
aF0.183
aa(lp1153
g64
aF0.245
aa(lp1154
g66
aF0.203
aa(lp1155
g68
aF0.228
aa(lp1156
g70
aF0.25
aa(lp1157
g72
aF0.235
aa(lp1158
g74
aF0.232
aa(lp1159
g76
aF0.248
aa(lp1160
g78
aF0.263
aa(lp1161
g80
aF0.209
aa(lp1162
g82
aF0.154
aa(lp1163
g84
aF0.235
aa(lp1164
g86
aF0.222
aa(lp1165
g88
aF0.206
aa(lp1166
g90
aF0.11
aa(lp1167
g92
aF0.179
aa(lp1168
g94
aF0.236
aa(lp1169
g96
aF0.19
aa(lp1170
g98
aF0.203
aa(lp1171
g100
aF0.23
aa(lp1172
g102
aF0.231
aa(lp1173
g104
aF0.207
aa(lp1174
g106
aF0.267
aa(lp1175
g108
aF0.217
aa(lp1176
g110
aF0.221
aa(lp1177
g112
aF0.133
aa(lp1178
g114
aF0.15
aa(lp1179
g116
aF0.265
aa(lp1180
g118
aF0.259
aasg58
(lp1181
(lp1182
g4
aF0.27
aa(lp1183
g6
aF0.193
aa(lp1184
g8
aF0.255
aa(lp1185
g10
aF0.236
aa(lp1186
g12
aF0.264
aa(lp1187
g14
aF0.251
aa(lp1188
g16
aF0.189
aa(lp1189
g18
aF0.295
aa(lp1190
g20
aF0.257
aa(lp1191
g1
aF0.257
aa(lp1192
g22
aF0.217
aa(lp1193
g24
aF0.211
aa(lp1194
g26
aF0.2
aa(lp1195
g28
aF0.26
aa(lp1196
g30
aF0.28
aa(lp1197
g32
aF0.262
aa(lp1198
g34
aF0.278
aa(lp1199
g36
aF0.254
aa(lp1200
g38
aF0.241
aa(lp1201
g40
aF0.242
aa(lp1202
g42
aF0.283
aa(lp1203
g44
aF0.264
aa(lp1204
g46
aF0.263
aa(lp1205
g48
aF0.186
aa(lp1206
g50
aF0.232
aa(lp1207
g52
aF0.246
aa(lp1208
g54
aF0.239
aa(lp1209
g56
aF0.25
aa(lp1210
g60
aF0.253
aa(lp1211
g62
aF0.199
aa(lp1212
g64
aF0.248
aa(lp1213
g66
aF0.234
aa(lp1214
g68
aF0.288
aa(lp1215
g70
aF0.269
aa(lp1216
g72
aF0.233
aa(lp1217
g74
aF0.287
aa(lp1218
g76
aF0.263
aa(lp1219
g78
aF0.274
aa(lp1220
g80
aF0.193
aa(lp1221
g82
aF0.207
aa(lp1222
g84
aF0.235
aa(lp1223
g86
aF0.281
aa(lp1224
g88
aF0.201
aa(lp1225
g90
aF0.165
aa(lp1226
g92
aF0.203
aa(lp1227
g94
aF0.212
aa(lp1228
g96
aF0.217
aa(lp1229
g98
aF0.207
aa(lp1230
g100
aF0.283
aa(lp1231
g102
aF0.29
aa(lp1232
g104
aF0.213
aa(lp1233
g106
aF0.282
aa(lp1234
g108
aF0.241
aa(lp1235
g110
aF0.244
aa(lp1236
g112
aF0.175
aa(lp1237
g114
aF0.185
aa(lp1238
g116
aF0.232
aa(lp1239
g118
aF0.244
aasg78
(lp1240
(lp1241
g4
aF0.243
aa(lp1242
g6
aF0.206
aa(lp1243
g8
aF0.235
aa(lp1244
g10
aF0.205
aa(lp1245
g12
aF0.275
aa(lp1246
g14
aF0.196
aa(lp1247
g16
aF0.162
aa(lp1248
g18
aF0.283
aa(lp1249
g20
aF0.207
aa(lp1250
g1
aF0.233
aa(lp1251
g22
aF0.245
aa(lp1252
g24
aF0.194
aa(lp1253
g26
aF0.188
aa(lp1254
g28
aF0.272
aa(lp1255
g30
aF0.274
aa(lp1256
g32
aF0.266
aa(lp1257
g34
aF0.258
aa(lp1258
g36
aF0.283
aa(lp1259
g38
aF0.227
aa(lp1260
g40
aF0.31
aa(lp1261
g42
aF0.289
aa(lp1262
g44
aF0.271
aa(lp1263
g46
aF0.362
aa(lp1264
g48
aF0.156
aa(lp1265
g50
aF0.209
aa(lp1266
g52
aF0.207
aa(lp1267
g54
aF0.263
aa(lp1268
g56
aF0.201
aa(lp1269
g58
aF0.274
aa(lp1270
g60
aF0.201
aa(lp1271
g62
aF0.183
aa(lp1272
g64
aF0.321
aa(lp1273
g66
aF0.199
aa(lp1274
g68
aF0.249
aa(lp1275
g70
aF0.291
aa(lp1276
g72
aF0.227
aa(lp1277
g74
aF0.279
aa(lp1278
g76
aF0.25
aa(lp1279
g80
aF0.166
aa(lp1280
g82
aF0.191
aa(lp1281
g84
aF0.235
aa(lp1282
g86
aF0.234
aa(lp1283
g88
aF0.225
aa(lp1284
g90
aF0.134
aa(lp1285
g92
aF0.172
aa(lp1286
g94
aF0.249
aa(lp1287
g96
aF0.176
aa(lp1288
g98
aF0.189
aa(lp1289
g100
aF0.24
aa(lp1290
g102
aF0.273
aa(lp1291
g104
aF0.199
aa(lp1292
g106
aF0.31
aa(lp1293
g108
aF0.219
aa(lp1294
g110
aF0.268
aa(lp1295
g112
aF0.127
aa(lp1296
g114
aF0.151
aa(lp1297
g116
aF0.316
aa(lp1298
g118
aF0.225
aasg52
(lp1299
(lp1300
g4
aF0.284
aa(lp1301
g6
aF0.189
aa(lp1302
g8
aF0.279
aa(lp1303
g10
aF0.25
aa(lp1304
g12
aF0.225
aa(lp1305
g14
aF0.247
aa(lp1306
g16
aF0.17
aa(lp1307
g18
aF0.251
aa(lp1308
g20
aF0.252
aa(lp1309
g1
aF0.234
aa(lp1310
g22
aF0.227
aa(lp1311
g24
aF0.212
aa(lp1312
g26
aF0.229
aa(lp1313
g28
aF0.251
aa(lp1314
g30
aF0.215
aa(lp1315
g32
aF0.249
aa(lp1316
g34
aF0.252
aa(lp1317
g36
aF0.236
aa(lp1318
g38
aF0.209
aa(lp1319
g40
aF0.199
aa(lp1320
g42
aF0.254
aa(lp1321
g44
aF0.217
aa(lp1322
g46
aF0.203
aa(lp1323
g48
aF0.204
aa(lp1324
g50
aF0.246
aa(lp1325
g54
aF0.218
aa(lp1326
g56
aF0.245
aa(lp1327
g58
aF0.246
aa(lp1328
g60
aF0.222
aa(lp1329
g62
aF0.229
aa(lp1330
g64
aF0.196
aa(lp1331
g66
aF0.242
aa(lp1332
g68
aF0.254
aa(lp1333
g70
aF0.241
aa(lp1334
g72
aF0.251
aa(lp1335
g74
aF0.206
aa(lp1336
g76
aF0.242
aa(lp1337
g78
aF0.207
aa(lp1338
g80
aF0.241
aa(lp1339
g82
aF0.179
aa(lp1340
g84
aF0.249
aa(lp1341
g86
aF0.256
aa(lp1342
g88
aF0.179
aa(lp1343
g90
aF0.182
aa(lp1344
g92
aF0.203
aa(lp1345
g94
aF0.229
aa(lp1346
g96
aF0.239
aa(lp1347
g98
aF0.244
aa(lp1348
g100
aF0.249
aa(lp1349
g102
aF0.256
aa(lp1350
g104
aF0.225
aa(lp1351
g106
aF0.244
aa(lp1352
g108
aF0.249
aa(lp1353
g110
aF0.211
aa(lp1354
g112
aF0.184
aa(lp1355
g114
aF0.176
aa(lp1356
g116
aF0.188
aa(lp1357
g118
aF0.265
aasg4
(lp1358
(lp1359
g6
aF0.189
aa(lp1360
g8
aF0.298
aa(lp1361
g10
aF0.233
aa(lp1362
g12
aF0.248
aa(lp1363
g14
aF0.244
aa(lp1364
g16
aF0.187
aa(lp1365
g18
aF0.278
aa(lp1366
g20
aF0.273
aa(lp1367
g1
aF0.236
aa(lp1368
g22
aF0.237
aa(lp1369
g24
aF0.225
aa(lp1370
g26
aF0.225
aa(lp1371
g28
aF0.273
aa(lp1372
g30
aF0.245
aa(lp1373
g32
aF0.283
aa(lp1374
g34
aF0.27
aa(lp1375
g36
aF0.265
aa(lp1376
g38
aF0.239
aa(lp1377
g40
aF0.228
aa(lp1378
g42
aF0.257
aa(lp1379
g44
aF0.273
aa(lp1380
g46
aF0.243
aa(lp1381
g48
aF0.184
aa(lp1382
g50
aF0.257
aa(lp1383
g52
aF0.284
aa(lp1384
g54
aF0.293
aa(lp1385
g56
aF0.252
aa(lp1386
g58
aF0.27
aa(lp1387
g60
aF0.226
aa(lp1388
g62
aF0.246
aa(lp1389
g64
aF0.236
aa(lp1390
g66
aF0.231
aa(lp1391
g68
aF0.259
aa(lp1392
g70
aF0.273
aa(lp1393
g72
aF0.274
aa(lp1394
g74
aF0.244
aa(lp1395
g76
aF0.263
aa(lp1396
g78
aF0.243
aa(lp1397
g80
aF0.232
aa(lp1398
g82
aF0.179
aa(lp1399
g84
aF0.254
aa(lp1400
g86
aF0.268
aa(lp1401
g88
aF0.191
aa(lp1402
g90
aF0.168
aa(lp1403
g92
aF0.205
aa(lp1404
g94
aF0.242
aa(lp1405
g96
aF0.226
aa(lp1406
g98
aF0.232
aa(lp1407
g100
aF0.262
aa(lp1408
g102
aF0.28
aa(lp1409
g104
aF0.229
aa(lp1410
g106
aF0.26
aa(lp1411
g108
aF0.242
aa(lp1412
g110
aF0.264
aa(lp1413
g112
aF0.181
aa(lp1414
g114
aF0.189
aa(lp1415
g116
aF0.219
aa(lp1416
g118
aF0.286
aasg40
(lp1417
(lp1418
g4
aF0.228
aa(lp1419
g6
aF0.163
aa(lp1420
g8
aF0.225
aa(lp1421
g10
aF0.192
aa(lp1422
g12
aF0.282
aa(lp1423
g14
aF0.182
aa(lp1424
g16
aF0.169
aa(lp1425
g18
aF0.265
aa(lp1426
g20
aF0.201
aa(lp1427
g1
aF0.267
aa(lp1428
g22
aF0.233
aa(lp1429
g24
aF0.189
aa(lp1430
g26
aF0.179
aa(lp1431
g28
aF0.244
aa(lp1432
g30
aF0.306
aa(lp1433
g32
aF0.259
aa(lp1434
g34
aF0.229
aa(lp1435
g36
aF0.252
aa(lp1436
g38
aF0.241
aa(lp1437
g42
aF0.261
aa(lp1438
g44
aF0.261
aa(lp1439
g46
aF0.313
aa(lp1440
g48
aF0.139
aa(lp1441
g50
aF0.19
aa(lp1442
g52
aF0.199
aa(lp1443
g54
aF0.261
aa(lp1444
g56
aF0.201
aa(lp1445
g58
aF0.242
aa(lp1446
g60
aF0.218
aa(lp1447
g62
aF0.161
aa(lp1448
g64
aF0.298
aa(lp1449
g66
aF0.2
aa(lp1450
g68
aF0.225
aa(lp1451
g70
aF0.248
aa(lp1452
g72
aF0.207
aa(lp1453
g74
aF0.251
aa(lp1454
g76
aF0.227
aa(lp1455
g78
aF0.31
aa(lp1456
g80
aF0.16
aa(lp1457
g82
aF0.165
aa(lp1458
g84
aF0.22
aa(lp1459
g86
aF0.214
aa(lp1460
g88
aF0.22
aa(lp1461
g90
aF0.116
aa(lp1462
g92
aF0.163
aa(lp1463
g94
aF0.228
aa(lp1464
g96
aF0.177
aa(lp1465
g98
aF0.175
aa(lp1466
g100
aF0.215
aa(lp1467
g102
aF0.236
aa(lp1468
g104
aF0.188
aa(lp1469
g106
aF0.278
aa(lp1470
g108
aF0.206
aa(lp1471
g110
aF0.235
aa(lp1472
g112
aF0.118
aa(lp1473
g114
aF0.135
aa(lp1474
g116
aF0.328
aa(lp1475
g118
aF0.206
aasg96
(lp1476
(lp1477
g4
aF0.226
aa(lp1478
g6
aF0.148
aa(lp1479
g8
aF0.216
aa(lp1480
g10
aF0.212
aa(lp1481
g12
aF0.199
aa(lp1482
g14
aF0.21
aa(lp1483
g16
aF0.149
aa(lp1484
g18
aF0.212
aa(lp1485
g20
aF0.224
aa(lp1486
g1
aF0.194
aa(lp1487
g22
aF0.205
aa(lp1488
g24
aF0.165
aa(lp1489
g26
aF0.182
aa(lp1490
g28
aF0.218
aa(lp1491
g30
aF0.201
aa(lp1492
g32
aF0.196
aa(lp1493
g34
aF0.206
aa(lp1494
g36
aF0.202
aa(lp1495
g38
aF0.202
aa(lp1496
g40
aF0.177
aa(lp1497
g42
aF0.213
aa(lp1498
g44
aF0.203
aa(lp1499
g46
aF0.179
aa(lp1500
g48
aF0.159
aa(lp1501
g50
aF0.202
aa(lp1502
g52
aF0.239
aa(lp1503
g54
aF0.19
aa(lp1504
g56
aF0.207
aa(lp1505
g58
aF0.217
aa(lp1506
g60
aF0.188
aa(lp1507
g62
aF0.201
aa(lp1508
g64
aF0.176
aa(lp1509
g66
aF0.211
aa(lp1510
g68
aF0.214
aa(lp1511
g70
aF0.201
aa(lp1512
g72
aF0.192
aa(lp1513
g74
aF0.187
aa(lp1514
g76
aF0.211
aa(lp1515
g78
aF0.176
aa(lp1516
g80
aF0.188
aa(lp1517
g82
aF0.141
aa(lp1518
g84
aF0.227
aa(lp1519
g86
aF0.219
aa(lp1520
g88
aF0.161
aa(lp1521
g90
aF0.144
aa(lp1522
g92
aF0.181
aa(lp1523
g94
aF0.18
aa(lp1524
g98
aF0.218
aa(lp1525
g100
aF0.203
aa(lp1526
g102
aF0.226
aa(lp1527
g104
aF0.206
aa(lp1528
g106
aF0.21
aa(lp1529
g108
aF0.225
aa(lp1530
g110
aF0.182
aa(lp1531
g112
aF0.165
aa(lp1532
g114
aF0.164
aa(lp1533
g116
aF0.164
aa(lp1534
g118
aF0.214
aasg62
(lp1535
(lp1536
g4
aF0.246
aa(lp1537
g6
aF0.16
aa(lp1538
g8
aF0.277
aa(lp1539
g10
aF0.2
aa(lp1540
g12
aF0.186
aa(lp1541
g14
aF0.208
aa(lp1542
g16
aF0.155
aa(lp1543
g18
aF0.209
aa(lp1544
g20
aF0.21
aa(lp1545
g1
aF0.193
aa(lp1546
g22
aF0.179
aa(lp1547
g24
aF0.178
aa(lp1548
g26
aF0.173
aa(lp1549
g28
aF0.194
aa(lp1550
g30
aF0.187
aa(lp1551
g32
aF0.217
aa(lp1552
g34
aF0.201
aa(lp1553
g36
aF0.196
aa(lp1554
g38
aF0.173
aa(lp1555
g40
aF0.161
aa(lp1556
g42
aF0.206
aa(lp1557
g44
aF0.206
aa(lp1558
g46
aF0.186
aa(lp1559
g48
aF0.188
aa(lp1560
g50
aF0.216
aa(lp1561
g52
aF0.229
aa(lp1562
g54
aF0.183
aa(lp1563
g56
aF0.195
aa(lp1564
g58
aF0.199
aa(lp1565
g60
aF0.171
aa(lp1566
g64
aF0.167
aa(lp1567
g66
aF0.224
aa(lp1568
g68
aF0.213
aa(lp1569
g70
aF0.213
aa(lp1570
g72
aF0.216
aa(lp1571
g74
aF0.19
aa(lp1572
g76
aF0.214
aa(lp1573
g78
aF0.183
aa(lp1574
g80
aF0.196
aa(lp1575
g82
aF0.16
aa(lp1576
g84
aF0.204
aa(lp1577
g86
aF0.204
aa(lp1578
g88
aF0.158
aa(lp1579
g90
aF0.162
aa(lp1580
g92
aF0.191
aa(lp1581
g94
aF0.183
aa(lp1582
g96
aF0.201
aa(lp1583
g98
aF0.232
aa(lp1584
g100
aF0.198
aa(lp1585
g102
aF0.212
aa(lp1586
g104
aF0.202
aa(lp1587
g106
aF0.203
aa(lp1588
g108
aF0.222
aa(lp1589
g110
aF0.195
aa(lp1590
g112
aF0.155
aa(lp1591
g114
aF0.172
aa(lp1592
g116
aF0.156
aa(lp1593
g118
aF0.276
aasg56
(lp1594
(lp1595
g4
aF0.252
aa(lp1596
g6
aF0.174
aa(lp1597
g8
aF0.24
aa(lp1598
g10
aF0.221
aa(lp1599
g12
aF0.231
aa(lp1600
g14
aF0.244
aa(lp1601
g16
aF0.17
aa(lp1602
g18
aF0.238
aa(lp1603
g20
aF0.251
aa(lp1604
g1
aF0.194
aa(lp1605
g22
aF0.247
aa(lp1606
g24
aF0.207
aa(lp1607
g26
aF0.2
aa(lp1608
g28
aF0.226
aa(lp1609
g30
aF0.223
aa(lp1610
g32
aF0.232
aa(lp1611
g34
aF0.23
aa(lp1612
g36
aF0.22
aa(lp1613
g38
aF0.205
aa(lp1614
g40
aF0.201
aa(lp1615
g42
aF0.227
aa(lp1616
g44
aF0.25
aa(lp1617
g46
aF0.206
aa(lp1618
g48
aF0.169
aa(lp1619
g50
aF0.252
aa(lp1620
g52
aF0.245
aa(lp1621
g54
aF0.234
aa(lp1622
g58
aF0.25
aa(lp1623
g60
aF0.198
aa(lp1624
g62
aF0.195
aa(lp1625
g64
aF0.175
aa(lp1626
g66
aF0.229
aa(lp1627
g68
aF0.226
aa(lp1628
g70
aF0.225
aa(lp1629
g72
aF0.206
aa(lp1630
g74
aF0.219
aa(lp1631
g76
aF0.2
aa(lp1632
g78
aF0.201
aa(lp1633
g80
aF0.202
aa(lp1634
g82
aF0.175
aa(lp1635
g84
aF0.211
aa(lp1636
g86
aF0.282
aa(lp1637
g88
aF0.18
aa(lp1638
g90
aF0.152
aa(lp1639
g92
aF0.209
aa(lp1640
g94
aF0.23
aa(lp1641
g96
aF0.207
aa(lp1642
g98
aF0.218
aa(lp1643
g100
aF0.217
aa(lp1644
g102
aF0.24
aa(lp1645
g104
aF0.199
aa(lp1646
g106
aF0.232
aa(lp1647
g108
aF0.236
aa(lp1648
g110
aF0.192
aa(lp1649
g112
aF0.155
aa(lp1650
g114
aF0.171
aa(lp1651
g116
aF0.183
aa(lp1652
g118
aF0.22
aasg34
(lp1653
(lp1654
g4
aF0.27
aa(lp1655
g6
aF0.181
aa(lp1656
g8
aF0.246
aa(lp1657
g10
aF0.227
aa(lp1658
g12
aF0.255
aa(lp1659
g14
aF0.244
aa(lp1660
g16
aF0.19
aa(lp1661
g18
aF0.239
aa(lp1662
g20
aF0.245
aa(lp1663
g1
aF0.242
aa(lp1664
g22
aF0.199
aa(lp1665
g24
aF0.215
aa(lp1666
g26
aF0.188
aa(lp1667
g28
aF0.235
aa(lp1668
g30
aF0.256
aa(lp1669
g32
aF0.25
aa(lp1670
g36
aF0.239
aa(lp1671
g38
aF0.227
aa(lp1672
g40
aF0.229
aa(lp1673
g42
aF0.223
aa(lp1674
g44
aF0.262
aa(lp1675
g46
aF0.241
aa(lp1676
g48
aF0.172
aa(lp1677
g50
aF0.222
aa(lp1678
g52
aF0.252
aa(lp1679
g54
aF0.224
aa(lp1680
g56
aF0.23
aa(lp1681
g58
aF0.278
aa(lp1682
g60
aF0.235
aa(lp1683
g62
aF0.201
aa(lp1684
g64
aF0.226
aa(lp1685
g66
aF0.244
aa(lp1686
g68
aF0.27
aa(lp1687
g70
aF0.278
aa(lp1688
g72
aF0.229
aa(lp1689
g74
aF0.288
aa(lp1690
g76
aF0.243
aa(lp1691
g78
aF0.258
aa(lp1692
g80
aF0.174
aa(lp1693
g82
aF0.187
aa(lp1694
g84
aF0.233
aa(lp1695
g86
aF0.275
aa(lp1696
g88
aF0.207
aa(lp1697
g90
aF0.171
aa(lp1698
g92
aF0.181
aa(lp1699
g94
aF0.196
aa(lp1700
g96
aF0.206
aa(lp1701
g98
aF0.186
aa(lp1702
g100
aF0.243
aa(lp1703
g102
aF0.3
aa(lp1704
g104
aF0.206
aa(lp1705
g106
aF0.257
aa(lp1706
g108
aF0.233
aa(lp1707
g110
aF0.255
aa(lp1708
g112
aF0.145
aa(lp1709
g114
aF0.182
aa(lp1710
g116
aF0.222
aa(lp1711
g118
aF0.249
aasg66
(lp1712
(lp1713
g4
aF0.231
aa(lp1714
g6
aF0.165
aa(lp1715
g8
aF0.26
aa(lp1716
g10
aF0.206
aa(lp1717
g12
aF0.211
aa(lp1718
g14
aF0.26
aa(lp1719
g16
aF0.151
aa(lp1720
g18
aF0.229
aa(lp1721
g20
aF0.238
aa(lp1722
g1
aF0.228
aa(lp1723
g22
aF0.189
aa(lp1724
g24
aF0.18
aa(lp1725
g26
aF0.171
aa(lp1726
g28
aF0.218
aa(lp1727
g30
aF0.217
aa(lp1728
g32
aF0.223
aa(lp1729
g34
aF0.244
aa(lp1730
g36
aF0.203
aa(lp1731
g38
aF0.2
aa(lp1732
g40
aF0.2
aa(lp1733
g42
aF0.234
aa(lp1734
g44
aF0.242
aa(lp1735
g46
aF0.194
aa(lp1736
g48
aF0.181
aa(lp1737
g50
aF0.219
aa(lp1738
g52
aF0.242
aa(lp1739
g54
aF0.203
aa(lp1740
g56
aF0.229
aa(lp1741
g58
aF0.234
aa(lp1742
g60
aF0.192
aa(lp1743
g62
aF0.224
aa(lp1744
g64
aF0.193
aa(lp1745
g68
aF0.273
aa(lp1746
g70
aF0.244
aa(lp1747
g72
aF0.223
aa(lp1748
g74
aF0.23
aa(lp1749
g76
aF0.212
aa(lp1750
g78
aF0.199
aa(lp1751
g80
aF0.188
aa(lp1752
g82
aF0.17
aa(lp1753
g84
aF0.223
aa(lp1754
g86
aF0.25
aa(lp1755
g88
aF0.18
aa(lp1756
g90
aF0.147
aa(lp1757
g92
aF0.171
aa(lp1758
g94
aF0.18
aa(lp1759
g96
aF0.211
aa(lp1760
g98
aF0.217
aa(lp1761
g100
aF0.201
aa(lp1762
g102
aF0.265
aa(lp1763
g104
aF0.195
aa(lp1764
g106
aF0.221
aa(lp1765
g108
aF0.225
aa(lp1766
g110
aF0.212
aa(lp1767
g112
aF0.127
aa(lp1768
g114
aF0.175
aa(lp1769
g116
aF0.193
aa(lp1770
g118
aF0.234
aasg82
(lp1771
(lp1772
g4
aF0.179
aa(lp1773
g6
aF0.221
aa(lp1774
g8
aF0.177
aa(lp1775
g10
aF0.191
aa(lp1776
g12
aF0.204
aa(lp1777
g14
aF0.2
aa(lp1778
g16
aF0.16
aa(lp1779
g18
aF0.185
aa(lp1780
g20
aF0.191
aa(lp1781
g1
aF0.173
aa(lp1782
g22
aF0.157
aa(lp1783
g24
aF0.192
aa(lp1784
g26
aF0.173
aa(lp1785
g28
aF0.156
aa(lp1786
g30
aF0.17
aa(lp1787
g32
aF0.165
aa(lp1788
g34
aF0.187
aa(lp1789
g36
aF0.162
aa(lp1790
g38
aF0.165
aa(lp1791
g40
aF0.165
aa(lp1792
g42
aF0.175
aa(lp1793
g44
aF0.157
aa(lp1794
g46
aF0.181
aa(lp1795
g48
aF0.165
aa(lp1796
g50
aF0.187
aa(lp1797
g52
aF0.179
aa(lp1798
g54
aF0.154
aa(lp1799
g56
aF0.175
aa(lp1800
g58
aF0.207
aa(lp1801
g60
aF0.188
aa(lp1802
g62
aF0.16
aa(lp1803
g64
aF0.165
aa(lp1804
g66
aF0.17
aa(lp1805
g68
aF0.187
aa(lp1806
g70
aF0.174
aa(lp1807
g72
aF0.173
aa(lp1808
g74
aF0.174
aa(lp1809
g76
aF0.177
aa(lp1810
g78
aF0.191
aa(lp1811
g80
aF0.147
aa(lp1812
g84
aF0.182
aa(lp1813
g86
aF0.19
aa(lp1814
g88
aF0.16
aa(lp1815
g90
aF0.17
aa(lp1816
g92
aF0.17
aa(lp1817
g94
aF0.171
aa(lp1818
g96
aF0.141
aa(lp1819
g98
aF0.169
aa(lp1820
g100
aF0.175
aa(lp1821
g102
aF0.202
aa(lp1822
g104
aF0.162
aa(lp1823
g106
aF0.184
aa(lp1824
g108
aF0.223
aa(lp1825
g110
aF0.177
aa(lp1826
g112
aF0.155
aa(lp1827
g114
aF0.162
aa(lp1828
g116
aF0.176
aa(lp1829
g118
aF0.172
aasg48
(lp1830
(lp1831
g4
aF0.184
aa(lp1832
g6
aF0.173
aa(lp1833
g8
aF0.183
aa(lp1834
g10
aF0.183
aa(lp1835
g12
aF0.159
aa(lp1836
g14
aF0.175
aa(lp1837
g16
aF0.182
aa(lp1838
g18
aF0.178
aa(lp1839
g20
aF0.162
aa(lp1840
g1
aF0.184
aa(lp1841
g22
aF0.14
aa(lp1842
g24
aF0.175
aa(lp1843
g26
aF0.152
aa(lp1844
g28
aF0.149
aa(lp1845
g30
aF0.172
aa(lp1846
g32
aF0.162
aa(lp1847
g34
aF0.172
aa(lp1848
g36
aF0.146
aa(lp1849
g38
aF0.159
aa(lp1850
g40
aF0.139
aa(lp1851
g42
aF0.172
aa(lp1852
g44
aF0.165
aa(lp1853
g46
aF0.15
aa(lp1854
g50
aF0.173
aa(lp1855
g52
aF0.204
aa(lp1856
g54
aF0.15
aa(lp1857
g56
aF0.169
aa(lp1858
g58
aF0.186
aa(lp1859
g60
aF0.178
aa(lp1860
g62
aF0.188
aa(lp1861
g64
aF0.157
aa(lp1862
g66
aF0.181
aa(lp1863
g68
aF0.183
aa(lp1864
g70
aF0.177
aa(lp1865
g72
aF0.196
aa(lp1866
g74
aF0.175
aa(lp1867
g76
aF0.19
aa(lp1868
g78
aF0.156
aa(lp1869
g80
aF0.165
aa(lp1870
g82
aF0.165
aa(lp1871
g84
aF0.178
aa(lp1872
g86
aF0.187
aa(lp1873
g88
aF0.144
aa(lp1874
g90
aF0.155
aa(lp1875
g92
aF0.159
aa(lp1876
g94
aF0.133
aa(lp1877
g96
aF0.159
aa(lp1878
g98
aF0.191
aa(lp1879
g100
aF0.191
aa(lp1880
g102
aF0.193
aa(lp1881
g104
aF0.163
aa(lp1882
g106
aF0.165
aa(lp1883
g108
aF0.188
aa(lp1884
g110
aF0.18
aa(lp1885
g112
aF0.149
aa(lp1886
g114
aF0.154
aa(lp1887
g116
aF0.13
aa(lp1888
g118
aF0.177
aasg94
(lp1889
(lp1890
g4
aF0.242
aa(lp1891
g6
aF0.196
aa(lp1892
g8
aF0.233
aa(lp1893
g10
aF0.209
aa(lp1894
g12
aF0.25
aa(lp1895
g14
aF0.199
aa(lp1896
g16
aF0.161
aa(lp1897
g18
aF0.284
aa(lp1898
g20
aF0.215
aa(lp1899
g1
aF0.197
aa(lp1900
g22
aF0.271
aa(lp1901
g24
aF0.186
aa(lp1902
g26
aF0.211
aa(lp1903
g28
aF0.226
aa(lp1904
g30
aF0.205
aa(lp1905
g32
aF0.25
aa(lp1906
g34
aF0.196
aa(lp1907
g36
aF0.247
aa(lp1908
g38
aF0.19
aa(lp1909
g40
aF0.228
aa(lp1910
g42
aF0.281
aa(lp1911
g44
aF0.209
aa(lp1912
g46
aF0.255
aa(lp1913
g48
aF0.133
aa(lp1914
g50
aF0.245
aa(lp1915
g52
aF0.229
aa(lp1916
g54
aF0.236
aa(lp1917
g56
aF0.23
aa(lp1918
g58
aF0.212
aa(lp1919
g60
aF0.183
aa(lp1920
g62
aF0.183
aa(lp1921
g64
aF0.202
aa(lp1922
g66
aF0.18
aa(lp1923
g68
aF0.211
aa(lp1924
g70
aF0.205
aa(lp1925
g72
aF0.182
aa(lp1926
g74
aF0.194
aa(lp1927
g76
aF0.217
aa(lp1928
g78
aF0.249
aa(lp1929
g80
aF0.182
aa(lp1930
g82
aF0.171
aa(lp1931
g84
aF0.219
aa(lp1932
g86
aF0.211
aa(lp1933
g88
aF0.182
aa(lp1934
g90
aF0.126
aa(lp1935
g92
aF0.183
aa(lp1936
g96
aF0.18
aa(lp1937
g98
aF0.198
aa(lp1938
g100
aF0.216
aa(lp1939
g102
aF0.222
aa(lp1940
g104
aF0.194
aa(lp1941
g106
aF0.25
aa(lp1942
g108
aF0.21
aa(lp1943
g110
aF0.178
aa(lp1944
g112
aF0.14
aa(lp1945
g114
aF0.133
aa(lp1946
g116
aF0.234
aa(lp1947
g118
aF0.225
aasg104
(lp1948
(lp1949
g4
aF0.229
aa(lp1950
g6
aF0.179
aa(lp1951
g8
aF0.237
aa(lp1952
g10
aF0.196
aa(lp1953
g12
aF0.201
aa(lp1954
g14
aF0.207
aa(lp1955
g16
aF0.153
aa(lp1956
g18
aF0.224
aa(lp1957
g20
aF0.207
aa(lp1958
g1
aF0.19
aa(lp1959
g22
aF0.213
aa(lp1960
g24
aF0.182
aa(lp1961
g26
aF0.206
aa(lp1962
g28
aF0.24
aa(lp1963
g30
aF0.189
aa(lp1964
g32
aF0.213
aa(lp1965
g34
aF0.206
aa(lp1966
g36
aF0.224
aa(lp1967
g38
aF0.201
aa(lp1968
g40
aF0.188
aa(lp1969
g42
aF0.217
aa(lp1970
g44
aF0.181
aa(lp1971
g46
aF0.191
aa(lp1972
g48
aF0.163
aa(lp1973
g50
aF0.204
aa(lp1974
g52
aF0.225
aa(lp1975
g54
aF0.207
aa(lp1976
g56
aF0.199
aa(lp1977
g58
aF0.213
aa(lp1978
g60
aF0.181
aa(lp1979
g62
aF0.202
aa(lp1980
g64
aF0.179
aa(lp1981
g66
aF0.195
aa(lp1982
g68
aF0.199
aa(lp1983
g70
aF0.199
aa(lp1984
g72
aF0.195
aa(lp1985
g74
aF0.204
aa(lp1986
g76
aF0.216
aa(lp1987
g78
aF0.199
aa(lp1988
g80
aF0.226
aa(lp1989
g82
aF0.162
aa(lp1990
g84
aF0.238
aa(lp1991
g86
aF0.214
aa(lp1992
g88
aF0.158
aa(lp1993
g90
aF0.147
aa(lp1994
g92
aF0.234
aa(lp1995
g94
aF0.194
aa(lp1996
g96
aF0.206
aa(lp1997
g98
aF0.198
aa(lp1998
g100
aF0.217
aa(lp1999
g102
aF0.21
aa(lp2000
g106
aF0.218
aa(lp2001
g108
aF0.206
aa(lp2002
g110
aF0.208
aa(lp2003
g112
aF0.15
aa(lp2004
g114
aF0.167
aa(lp2005
g116
aF0.187
aa(lp2006
g118
aF0.218
aasg92
(lp2007
(lp2008
g4
aF0.205
aa(lp2009
g6
aF0.177
aa(lp2010
g8
aF0.205
aa(lp2011
g10
aF0.204
aa(lp2012
g12
aF0.189
aa(lp2013
g14
aF0.208
aa(lp2014
g16
aF0.164
aa(lp2015
g18
aF0.189
aa(lp2016
g20
aF0.2
aa(lp2017
g1
aF0.18
aa(lp2018
g22
aF0.201
aa(lp2019
g24
aF0.188
aa(lp2020
g26
aF0.204
aa(lp2021
g28
aF0.198
aa(lp2022
g30
aF0.173
aa(lp2023
g32
aF0.184
aa(lp2024
g34
aF0.181
aa(lp2025
g36
aF0.191
aa(lp2026
g38
aF0.205
aa(lp2027
g40
aF0.163
aa(lp2028
g42
aF0.191
aa(lp2029
g44
aF0.174
aa(lp2030
g46
aF0.178
aa(lp2031
g48
aF0.159
aa(lp2032
g50
aF0.208
aa(lp2033
g52
aF0.203
aa(lp2034
g54
aF0.179
aa(lp2035
g56
aF0.209
aa(lp2036
g58
aF0.203
aa(lp2037
g60
aF0.199
aa(lp2038
g62
aF0.191
aa(lp2039
g64
aF0.154
aa(lp2040
g66
aF0.171
aa(lp2041
g68
aF0.184
aa(lp2042
g70
aF0.182
aa(lp2043
g72
aF0.181
aa(lp2044
g74
aF0.173
aa(lp2045
g76
aF0.196
aa(lp2046
g78
aF0.172
aa(lp2047
g80
aF0.223
aa(lp2048
g82
aF0.17
aa(lp2049
g84
aF0.224
aa(lp2050
g86
aF0.195
aa(lp2051
g88
aF0.15
aa(lp2052
g90
aF0.135
aa(lp2053
g94
aF0.183
aa(lp2054
g96
aF0.181
aa(lp2055
g98
aF0.182
aa(lp2056
g100
aF0.208
aa(lp2057
g102
aF0.194
aa(lp2058
g104
aF0.234
aa(lp2059
g106
aF0.199
aa(lp2060
g108
aF0.209
aa(lp2061
g110
aF0.168
aa(lp2062
g112
aF0.155
aa(lp2063
g114
aF0.163
aa(lp2064
g116
aF0.168
aa(lp2065
g118
aF0.211
aasg20
(lp2066
(lp2067
g4
aF0.273
aa(lp2068
g6
aF0.178
aa(lp2069
g8
aF0.265
aa(lp2070
g10
aF0.235
aa(lp2071
g12
aF0.249
aa(lp2072
g14
aF0.275
aa(lp2073
g16
aF0.173
aa(lp2074
g18
aF0.244
aa(lp2075
g1
aF0.197
aa(lp2076
g22
aF0.236
aa(lp2077
g24
aF0.204
aa(lp2078
g26
aF0.222
aa(lp2079
g28
aF0.242
aa(lp2080
g30
aF0.21
aa(lp2081
g32
aF0.256
aa(lp2082
g34
aF0.245
aa(lp2083
g36
aF0.238
aa(lp2084
g38
aF0.204
aa(lp2085
g40
aF0.201
aa(lp2086
g42
aF0.229
aa(lp2087
g44
aF0.225
aa(lp2088
g46
aF0.221
aa(lp2089
g48
aF0.162
aa(lp2090
g50
aF0.249
aa(lp2091
g52
aF0.252
aa(lp2092
g54
aF0.216
aa(lp2093
g56
aF0.251
aa(lp2094
g58
aF0.257
aa(lp2095
g60
aF0.214
aa(lp2096
g62
aF0.21
aa(lp2097
g64
aF0.187
aa(lp2098
g66
aF0.238
aa(lp2099
g68
aF0.263
aa(lp2100
g70
aF0.258
aa(lp2101
g72
aF0.218
aa(lp2102
g74
aF0.238
aa(lp2103
g76
aF0.23
aa(lp2104
g78
aF0.207
aa(lp2105
g80
aF0.191
aa(lp2106
g82
aF0.191
aa(lp2107
g84
aF0.234
aa(lp2108
g86
aF0.24
aa(lp2109
g88
aF0.178
aa(lp2110
g90
aF0.173
aa(lp2111
g92
aF0.2
aa(lp2112
g94
aF0.215
aa(lp2113
g96
aF0.224
aa(lp2114
g98
aF0.217
aa(lp2115
g100
aF0.237
aa(lp2116
g102
aF0.255
aa(lp2117
g104
aF0.207
aa(lp2118
g106
aF0.254
aa(lp2119
g108
aF0.232
aa(lp2120
g110
aF0.205
aa(lp2121
g112
aF0.166
aa(lp2122
g114
aF0.188
aa(lp2123
g116
aF0.191
aa(lp2124
g118
aF0.246
aasg32
(lp2125
(lp2126
g4
aF0.283
aa(lp2127
g6
aF0.176
aa(lp2128
g8
aF0.285
aa(lp2129
g10
aF0.213
aa(lp2130
g12
aF0.267
aa(lp2131
g14
aF0.225
aa(lp2132
g16
aF0.166
aa(lp2133
g18
aF0.289
aa(lp2134
g20
aF0.256
aa(lp2135
g1
aF0.232
aa(lp2136
g22
aF0.254
aa(lp2137
g24
aF0.197
aa(lp2138
g26
aF0.217
aa(lp2139
g28
aF0.276
aa(lp2140
g30
aF0.245
aa(lp2141
g34
aF0.25
aa(lp2142
g36
aF0.276
aa(lp2143
g38
aF0.238
aa(lp2144
g40
aF0.259
aa(lp2145
g42
aF0.274
aa(lp2146
g44
aF0.266
aa(lp2147
g46
aF0.271
aa(lp2148
g48
aF0.162
aa(lp2149
g50
aF0.253
aa(lp2150
g52
aF0.249
aa(lp2151
g54
aF0.272
aa(lp2152
g56
aF0.232
aa(lp2153
g58
aF0.262
aa(lp2154
g60
aF0.205
aa(lp2155
g62
aF0.217
aa(lp2156
g64
aF0.247
aa(lp2157
g66
aF0.223
aa(lp2158
g68
aF0.263
aa(lp2159
g70
aF0.266
aa(lp2160
g72
aF0.239
aa(lp2161
g74
aF0.256
aa(lp2162
g76
aF0.249
aa(lp2163
g78
aF0.266
aa(lp2164
g80
aF0.191
aa(lp2165
g82
aF0.165
aa(lp2166
g84
aF0.253
aa(lp2167
g86
aF0.25
aa(lp2168
g88
aF0.205
aa(lp2169
g90
aF0.145
aa(lp2170
g92
aF0.184
aa(lp2171
g94
aF0.25
aa(lp2172
g96
aF0.196
aa(lp2173
g98
aF0.214
aa(lp2174
g100
aF0.246
aa(lp2175
g102
aF0.272
aa(lp2176
g104
aF0.213
aa(lp2177
g106
aF0.28
aa(lp2178
g108
aF0.231
aa(lp2179
g110
aF0.249
aa(lp2180
g112
aF0.148
aa(lp2181
g114
aF0.163
aa(lp2182
g116
aF0.252
aa(lp2183
g118
aF0.267
aasg26
(lp2184
(lp2185
g4
aF0.225
aa(lp2186
g6
aF0.183
aa(lp2187
g8
aF0.217
aa(lp2188
g10
aF0.209
aa(lp2189
g12
aF0.201
aa(lp2190
g14
aF0.208
aa(lp2191
g16
aF0.149
aa(lp2192
g18
aF0.207
aa(lp2193
g20
aF0.222
aa(lp2194
g1
aF0.179
aa(lp2195
g22
aF0.229
aa(lp2196
g24
aF0.182
aa(lp2197
g28
aF0.224
aa(lp2198
g30
aF0.189
aa(lp2199
g32
aF0.217
aa(lp2200
g34
aF0.188
aa(lp2201
g36
aF0.249
aa(lp2202
g38
aF0.187
aa(lp2203
g40
aF0.179
aa(lp2204
g42
aF0.199
aa(lp2205
g44
aF0.167
aa(lp2206
g46
aF0.197
aa(lp2207
g48
aF0.152
aa(lp2208
g50
aF0.208
aa(lp2209
g52
aF0.229
aa(lp2210
g54
aF0.213
aa(lp2211
g56
aF0.2
aa(lp2212
g58
aF0.2
aa(lp2213
g60
aF0.186
aa(lp2214
g62
aF0.173
aa(lp2215
g64
aF0.176
aa(lp2216
g66
aF0.171
aa(lp2217
g68
aF0.195
aa(lp2218
g70
aF0.184
aa(lp2219
g72
aF0.171
aa(lp2220
g74
aF0.177
aa(lp2221
g76
aF0.226
aa(lp2222
g78
aF0.188
aa(lp2223
g80
aF0.211
aa(lp2224
g82
aF0.173
aa(lp2225
g84
aF0.207
aa(lp2226
g86
aF0.186
aa(lp2227
g88
aF0.157
aa(lp2228
g90
aF0.134
aa(lp2229
g92
aF0.204
aa(lp2230
g94
aF0.211
aa(lp2231
g96
aF0.182
aa(lp2232
g98
aF0.198
aa(lp2233
g100
aF0.217
aa(lp2234
g102
aF0.211
aa(lp2235
g104
aF0.206
aa(lp2236
g106
aF0.234
aa(lp2237
g108
aF0.205
aa(lp2238
g110
aF0.167
aa(lp2239
g112
aF0.177
aa(lp2240
g114
aF0.167
aa(lp2241
g116
aF0.166
aa(lp2242
g118
aF0.225
aasg100
(lp2243
(lp2244
g4
aF0.262
aa(lp2245
g6
aF0.199
aa(lp2246
g8
aF0.24
aa(lp2247
g10
aF0.233
aa(lp2248
g12
aF0.242
aa(lp2249
g14
aF0.22
aa(lp2250
g16
aF0.174
aa(lp2251
g18
aF0.262
aa(lp2252
g20
aF0.237
aa(lp2253
g1
aF0.225
aa(lp2254
g22
aF0.216
aa(lp2255
g24
aF0.212
aa(lp2256
g26
aF0.217
aa(lp2257
g28
aF0.242
aa(lp2258
g30
aF0.24
aa(lp2259
g32
aF0.246
aa(lp2260
g34
aF0.243
aa(lp2261
g36
aF0.247
aa(lp2262
g38
aF0.227
aa(lp2263
g40
aF0.215
aa(lp2264
g42
aF0.242
aa(lp2265
g44
aF0.227
aa(lp2266
g46
aF0.266
aa(lp2267
g48
aF0.191
aa(lp2268
g50
aF0.225
aa(lp2269
g52
aF0.249
aa(lp2270
g54
aF0.23
aa(lp2271
g56
aF0.217
aa(lp2272
g58
aF0.283
aa(lp2273
g60
aF0.22
aa(lp2274
g62
aF0.198
aa(lp2275
g64
aF0.227
aa(lp2276
g66
aF0.201
aa(lp2277
g68
aF0.27
aa(lp2278
g70
aF0.249
aa(lp2279
g72
aF0.233
aa(lp2280
g74
aF0.267
aa(lp2281
g76
aF0.294
aa(lp2282
g78
aF0.24
aa(lp2283
g80
aF0.2
aa(lp2284
g82
aF0.175
aa(lp2285
g84
aF0.235
aa(lp2286
g86
aF0.241
aa(lp2287
g88
aF0.171
aa(lp2288
g90
aF0.163
aa(lp2289
g92
aF0.208
aa(lp2290
g94
aF0.216
aa(lp2291
g96
aF0.203
aa(lp2292
g98
aF0.205
aa(lp2293
g102
aF0.27
aa(lp2294
g104
aF0.217
aa(lp2295
g106
aF0.264
aa(lp2296
g108
aF0.202
aa(lp2297
g110
aF0.238
aa(lp2298
g112
aF0.19
aa(lp2299
g114
aF0.187
aa(lp2300
g116
aF0.215
aa(lp2301
g118
aF0.247
aasg108
(lp2302
(lp2303
g4
aF0.242
aa(lp2304
g6
aF0.207
aa(lp2305
g8
aF0.239
aa(lp2306
g10
aF0.234
aa(lp2307
g12
aF0.265
aa(lp2308
g14
aF0.239
aa(lp2309
g16
aF0.169
aa(lp2310
g18
aF0.239
aa(lp2311
g20
aF0.232
aa(lp2312
g1
aF0.229
aa(lp2313
g22
aF0.219
aa(lp2314
g24
aF0.216
aa(lp2315
g26
aF0.205
aa(lp2316
g28
aF0.224
aa(lp2317
g30
aF0.234
aa(lp2318
g32
aF0.231
aa(lp2319
g34
aF0.233
aa(lp2320
g36
aF0.228
aa(lp2321
g38
aF0.206
aa(lp2322
g40
aF0.206
aa(lp2323
g42
aF0.231
aa(lp2324
g44
aF0.219
aa(lp2325
g46
aF0.215
aa(lp2326
g48
aF0.188
aa(lp2327
g50
aF0.213
aa(lp2328
g52
aF0.249
aa(lp2329
g54
aF0.217
aa(lp2330
g56
aF0.236
aa(lp2331
g58
aF0.241
aa(lp2332
g60
aF0.239
aa(lp2333
g62
aF0.222
aa(lp2334
g64
aF0.192
aa(lp2335
g66
aF0.225
aa(lp2336
g68
aF0.243
aa(lp2337
g70
aF0.232
aa(lp2338
g72
aF0.226
aa(lp2339
g74
aF0.209
aa(lp2340
g76
aF0.231
aa(lp2341
g78
aF0.219
aa(lp2342
g80
aF0.222
aa(lp2343
g82
aF0.223
aa(lp2344
g84
aF0.235
aa(lp2345
g86
aF0.235
aa(lp2346
g88
aF0.184
aa(lp2347
g90
aF0.17
aa(lp2348
g92
aF0.209
aa(lp2349
g94
aF0.21
aa(lp2350
g96
aF0.225
aa(lp2351
g98
aF0.223
aa(lp2352
g100
aF0.202
aa(lp2353
g102
aF0.245
aa(lp2354
g104
aF0.206
aa(lp2355
g106
aF0.254
aa(lp2356
g110
aF0.215
aa(lp2357
g112
aF0.178
aa(lp2358
g114
aF0.188
aa(lp2359
g116
aF0.192
aa(lp2360
g118
aF0.249
aasg112
(lp2361
(lp2362
g4
aF0.181
aa(lp2363
g6
aF0.144
aa(lp2364
g8
aF0.159
aa(lp2365
g10
aF0.204
aa(lp2366
g12
aF0.159
aa(lp2367
g14
aF0.159
aa(lp2368
g16
aF0.129
aa(lp2369
g18
aF0.155
aa(lp2370
g20
aF0.166
aa(lp2371
g1
aF0.136
aa(lp2372
g22
aF0.15
aa(lp2373
g24
aF0.148
aa(lp2374
g26
aF0.177
aa(lp2375
g28
aF0.144
aa(lp2376
g30
aF0.145
aa(lp2377
g32
aF0.148
aa(lp2378
g34
aF0.145
aa(lp2379
g36
aF0.152
aa(lp2380
g38
aF0.141
aa(lp2381
g40
aF0.118
aa(lp2382
g42
aF0.144
aa(lp2383
g44
aF0.139
aa(lp2384
g46
aF0.134
aa(lp2385
g48
aF0.149
aa(lp2386
g50
aF0.147
aa(lp2387
g52
aF0.184
aa(lp2388
g54
aF0.133
aa(lp2389
g56
aF0.155
aa(lp2390
g58
aF0.175
aa(lp2391
g60
aF0.167
aa(lp2392
g62
aF0.155
aa(lp2393
g64
aF0.122
aa(lp2394
g66
aF0.127
aa(lp2395
g68
aF0.163
aa(lp2396
g70
aF0.137
aa(lp2397
g72
aF0.148
aa(lp2398
g74
aF0.136
aa(lp2399
g76
aF0.181
aa(lp2400
g78
aF0.127
aa(lp2401
g80
aF0.158
aa(lp2402
g82
aF0.155
aa(lp2403
g84
aF0.171
aa(lp2404
g86
aF0.166
aa(lp2405
g88
aF0.114
aa(lp2406
g90
aF0.128
aa(lp2407
g92
aF0.155
aa(lp2408
g94
aF0.14
aa(lp2409
g96
aF0.165
aa(lp2410
g98
aF0.164
aa(lp2411
g100
aF0.19
aa(lp2412
g102
aF0.162
aa(lp2413
g104
aF0.15
aa(lp2414
g106
aF0.157
aa(lp2415
g108
aF0.178
aa(lp2416
g110
aF0.136
aa(lp2417
g114
aF0.14
aa(lp2418
g116
aF0.107
aa(lp2419
g118
aF0.165
aasg90
(lp2420
(lp2421
g4
aF0.168
aa(lp2422
g6
aF0.156
aa(lp2423
g8
aF0.154
aa(lp2424
g10
aF0.194
aa(lp2425
g12
aF0.153
aa(lp2426
g14
aF0.183
aa(lp2427
g16
aF0.161
aa(lp2428
g18
aF0.149
aa(lp2429
g20
aF0.173
aa(lp2430
g1
aF0.143
aa(lp2431
g22
aF0.115
aa(lp2432
g24
aF0.178
aa(lp2433
g26
aF0.134
aa(lp2434
g28
aF0.136
aa(lp2435
g30
aF0.137
aa(lp2436
g32
aF0.145
aa(lp2437
g34
aF0.171
aa(lp2438
g36
aF0.14
aa(lp2439
g38
aF0.129
aa(lp2440
g40
aF0.116
aa(lp2441
g42
aF0.135
aa(lp2442
g44
aF0.14
aa(lp2443
g46
aF0.124
aa(lp2444
g48
aF0.155
aa(lp2445
g50
aF0.157
aa(lp2446
g52
aF0.182
aa(lp2447
g54
aF0.11
aa(lp2448
g56
aF0.152
aa(lp2449
g58
aF0.165
aa(lp2450
g60
aF0.155
aa(lp2451
g62
aF0.162
aa(lp2452
g64
aF0.124
aa(lp2453
g66
aF0.147
aa(lp2454
g68
aF0.181
aa(lp2455
g70
aF0.154
aa(lp2456
g72
aF0.168
aa(lp2457
g74
aF0.161
aa(lp2458
g76
aF0.16
aa(lp2459
g78
aF0.134
aa(lp2460
g80
aF0.133
aa(lp2461
g82
aF0.17
aa(lp2462
g84
aF0.161
aa(lp2463
g86
aF0.185
aa(lp2464
g88
aF0.121
aa(lp2465
g92
aF0.135
aa(lp2466
g94
aF0.126
aa(lp2467
g96
aF0.144
aa(lp2468
g98
aF0.146
aa(lp2469
g100
aF0.163
aa(lp2470
g102
aF0.178
aa(lp2471
g104
aF0.147
aa(lp2472
g106
aF0.14
aa(lp2473
g108
aF0.17
aa(lp2474
g110
aF0.174
aa(lp2475
g112
aF0.128
aa(lp2476
g114
aF0.168
aa(lp2477
g116
aF0.108
aa(lp2478
g118
aF0.164
aasg42
(lp2479
(lp2480
g4
aF0.257
aa(lp2481
g6
aF0.179
aa(lp2482
g8
aF0.273
aa(lp2483
g10
aF0.222
aa(lp2484
g12
aF0.26
aa(lp2485
g14
aF0.209
aa(lp2486
g16
aF0.153
aa(lp2487
g18
aF0.339
aa(lp2488
g20
aF0.229
aa(lp2489
g1
aF0.225
aa(lp2490
g22
aF0.267
aa(lp2491
g24
aF0.181
aa(lp2492
g26
aF0.199
aa(lp2493
g28
aF0.282
aa(lp2494
g30
aF0.253
aa(lp2495
g32
aF0.274
aa(lp2496
g34
aF0.223
aa(lp2497
g36
aF0.262
aa(lp2498
g38
aF0.222
aa(lp2499
g40
aF0.261
aa(lp2500
g44
aF0.273
aa(lp2501
g46
aF0.294
aa(lp2502
g48
aF0.172
aa(lp2503
g50
aF0.24
aa(lp2504
g52
aF0.254
aa(lp2505
g54
aF0.263
aa(lp2506
g56
aF0.227
aa(lp2507
g58
aF0.283
aa(lp2508
g60
aF0.194
aa(lp2509
g62
aF0.206
aa(lp2510
g64
aF0.258
aa(lp2511
g66
aF0.234
aa(lp2512
g68
aF0.246
aa(lp2513
g70
aF0.278
aa(lp2514
g72
aF0.24
aa(lp2515
g74
aF0.244
aa(lp2516
g76
aF0.247
aa(lp2517
g78
aF0.289
aa(lp2518
g80
aF0.196
aa(lp2519
g82
aF0.175
aa(lp2520
g84
aF0.24
aa(lp2521
g86
aF0.228
aa(lp2522
g88
aF0.199
aa(lp2523
g90
aF0.135
aa(lp2524
g92
aF0.191
aa(lp2525
g94
aF0.281
aa(lp2526
g96
aF0.213
aa(lp2527
g98
aF0.227
aa(lp2528
g100
aF0.242
aa(lp2529
g102
aF0.249
aa(lp2530
g104
aF0.217
aa(lp2531
g106
aF0.314
aa(lp2532
g108
aF0.231
aa(lp2533
g110
aF0.225
aa(lp2534
g112
aF0.144
aa(lp2535
g114
aF0.154
aa(lp2536
g116
aF0.273
aa(lp2537
g118
aF0.255
aasg28
(lp2538
(lp2539
g4
aF0.273
aa(lp2540
g6
aF0.167
aa(lp2541
g8
aF0.259
aa(lp2542
g10
aF0.218
aa(lp2543
g12
aF0.245
aa(lp2544
g14
aF0.225
aa(lp2545
g16
aF0.158
aa(lp2546
g18
aF0.268
aa(lp2547
g20
aF0.242
aa(lp2548
g1
aF0.217
aa(lp2549
g22
aF0.249
aa(lp2550
g24
aF0.186
aa(lp2551
g26
aF0.224
aa(lp2552
g30
aF0.249
aa(lp2553
g32
aF0.276
aa(lp2554
g34
aF0.235
aa(lp2555
g36
aF0.288
aa(lp2556
g38
aF0.229
aa(lp2557
g40
aF0.244
aa(lp2558
g42
aF0.282
aa(lp2559
g44
aF0.263
aa(lp2560
g46
aF0.277
aa(lp2561
g48
aF0.149
aa(lp2562
g50
aF0.211
aa(lp2563
g52
aF0.251
aa(lp2564
g54
aF0.263
aa(lp2565
g56
aF0.226
aa(lp2566
g58
aF0.26
aa(lp2567
g60
aF0.182
aa(lp2568
g62
aF0.194
aa(lp2569
g64
aF0.248
aa(lp2570
g66
aF0.218
aa(lp2571
g68
aF0.252
aa(lp2572
g70
aF0.274
aa(lp2573
g72
aF0.224
aa(lp2574
g74
aF0.252
aa(lp2575
g76
aF0.248
aa(lp2576
g78
aF0.272
aa(lp2577
g80
aF0.218
aa(lp2578
g82
aF0.156
aa(lp2579
g84
aF0.249
aa(lp2580
g86
aF0.232
aa(lp2581
g88
aF0.189
aa(lp2582
g90
aF0.136
aa(lp2583
g92
aF0.198
aa(lp2584
g94
aF0.226
aa(lp2585
g96
aF0.218
aa(lp2586
g98
aF0.202
aa(lp2587
g100
aF0.242
aa(lp2588
g102
aF0.26
aa(lp2589
g104
aF0.24
aa(lp2590
g106
aF0.309
aa(lp2591
g108
aF0.224
aa(lp2592
g110
aF0.23
aa(lp2593
g112
aF0.144
aa(lp2594
g114
aF0.168
aa(lp2595
g116
aF0.257
aa(lp2596
g118
aF0.241
aasg76
(lp2597
(lp2598
g4
aF0.263
aa(lp2599
g6
aF0.178
aa(lp2600
g8
aF0.258
aa(lp2601
g10
aF0.23
aa(lp2602
g12
aF0.239
aa(lp2603
g14
aF0.212
aa(lp2604
g16
aF0.17
aa(lp2605
g18
aF0.272
aa(lp2606
g20
aF0.23
aa(lp2607
g1
aF0.232
aa(lp2608
g22
aF0.209
aa(lp2609
g24
aF0.211
aa(lp2610
g26
aF0.226
aa(lp2611
g28
aF0.248
aa(lp2612
g30
aF0.252
aa(lp2613
g32
aF0.249
aa(lp2614
g34
aF0.243
aa(lp2615
g36
aF0.269
aa(lp2616
g38
aF0.244
aa(lp2617
g40
aF0.227
aa(lp2618
g42
aF0.247
aa(lp2619
g44
aF0.235
aa(lp2620
g46
aF0.258
aa(lp2621
g48
aF0.19
aa(lp2622
g50
aF0.204
aa(lp2623
g52
aF0.242
aa(lp2624
g54
aF0.248
aa(lp2625
g56
aF0.2
aa(lp2626
g58
aF0.263
aa(lp2627
g60
aF0.226
aa(lp2628
g62
aF0.214
aa(lp2629
g64
aF0.25
aa(lp2630
g66
aF0.212
aa(lp2631
g68
aF0.245
aa(lp2632
g70
aF0.263
aa(lp2633
g72
aF0.233
aa(lp2634
g74
aF0.247
aa(lp2635
g78
aF0.25
aa(lp2636
g80
aF0.204
aa(lp2637
g82
aF0.177
aa(lp2638
g84
aF0.245
aa(lp2639
g86
aF0.221
aa(lp2640
g88
aF0.182
aa(lp2641
g90
aF0.16
aa(lp2642
g92
aF0.196
aa(lp2643
g94
aF0.217
aa(lp2644
g96
aF0.211
aa(lp2645
g98
aF0.225
aa(lp2646
g100
aF0.294
aa(lp2647
g102
aF0.262
aa(lp2648
g104
aF0.216
aa(lp2649
g106
aF0.271
aa(lp2650
g108
aF0.231
aa(lp2651
g110
aF0.255
aa(lp2652
g112
aF0.181
aa(lp2653
g114
aF0.162
aa(lp2654
g116
aF0.231
aa(lp2655
g118
aF0.259
aasg14
(lp2656
(lp2657
g4
aF0.244
aa(lp2658
g6
aF0.189
aa(lp2659
g8
aF0.248
aa(lp2660
g10
aF0.242
aa(lp2661
g12
aF0.219
aa(lp2662
g16
aF0.179
aa(lp2663
g18
aF0.217
aa(lp2664
g20
aF0.275
aa(lp2665
g1
aF0.2
aa(lp2666
g22
aF0.205
aa(lp2667
g24
aF0.199
aa(lp2668
g26
aF0.208
aa(lp2669
g28
aF0.225
aa(lp2670
g30
aF0.213
aa(lp2671
g32
aF0.225
aa(lp2672
g34
aF0.244
aa(lp2673
g36
aF0.218
aa(lp2674
g38
aF0.206
aa(lp2675
g40
aF0.182
aa(lp2676
g42
aF0.209
aa(lp2677
g44
aF0.22
aa(lp2678
g46
aF0.188
aa(lp2679
g48
aF0.175
aa(lp2680
g50
aF0.231
aa(lp2681
g52
aF0.247
aa(lp2682
g54
aF0.202
aa(lp2683
g56
aF0.244
aa(lp2684
g58
aF0.251
aa(lp2685
g60
aF0.222
aa(lp2686
g62
aF0.208
aa(lp2687
g64
aF0.185
aa(lp2688
g66
aF0.26
aa(lp2689
g68
aF0.267
aa(lp2690
g70
aF0.223
aa(lp2691
g72
aF0.22
aa(lp2692
g74
aF0.227
aa(lp2693
g76
aF0.212
aa(lp2694
g78
aF0.196
aa(lp2695
g80
aF0.185
aa(lp2696
g82
aF0.2
aa(lp2697
g84
aF0.228
aa(lp2698
g86
aF0.253
aa(lp2699
g88
aF0.191
aa(lp2700
g90
aF0.183
aa(lp2701
g92
aF0.208
aa(lp2702
g94
aF0.199
aa(lp2703
g96
aF0.21
aa(lp2704
g98
aF0.201
aa(lp2705
g100
aF0.22
aa(lp2706
g102
aF0.252
aa(lp2707
g104
aF0.207
aa(lp2708
g106
aF0.231
aa(lp2709
g108
aF0.239
aa(lp2710
g110
aF0.195
aa(lp2711
g112
aF0.159
aa(lp2712
g114
aF0.23
aa(lp2713
g116
aF0.172
aa(lp2714
g118
aF0.232
aasg86
(lp2715
(lp2716
g4
aF0.268
aa(lp2717
g6
aF0.186
aa(lp2718
g8
aF0.24
aa(lp2719
g10
aF0.242
aa(lp2720
g12
aF0.233
aa(lp2721
g14
aF0.253
aa(lp2722
g16
aF0.173
aa(lp2723
g18
aF0.239
aa(lp2724
g20
aF0.24
aa(lp2725
g1
aF0.218
aa(lp2726
g22
aF0.206
aa(lp2727
g24
aF0.207
aa(lp2728
g26
aF0.186
aa(lp2729
g28
aF0.232
aa(lp2730
g30
aF0.234
aa(lp2731
g32
aF0.25
aa(lp2732
g34
aF0.275
aa(lp2733
g36
aF0.226
aa(lp2734
g38
aF0.209
aa(lp2735
g40
aF0.214
aa(lp2736
g42
aF0.228
aa(lp2737
g44
aF0.278
aa(lp2738
g46
aF0.223
aa(lp2739
g48
aF0.187
aa(lp2740
g50
aF0.232
aa(lp2741
g52
aF0.256
aa(lp2742
g54
aF0.222
aa(lp2743
g56
aF0.282
aa(lp2744
g58
aF0.281
aa(lp2745
g60
aF0.22
aa(lp2746
g62
aF0.204
aa(lp2747
g64
aF0.206
aa(lp2748
g66
aF0.25
aa(lp2749
g68
aF0.271
aa(lp2750
g70
aF0.235
aa(lp2751
g72
aF0.232
aa(lp2752
g74
aF0.274
aa(lp2753
g76
aF0.221
aa(lp2754
g78
aF0.234
aa(lp2755
g80
aF0.187
aa(lp2756
g82
aF0.19
aa(lp2757
g84
aF0.238
aa(lp2758
g88
aF0.198
aa(lp2759
g90
aF0.185
aa(lp2760
g92
aF0.195
aa(lp2761
g94
aF0.211
aa(lp2762
g96
aF0.219
aa(lp2763
g98
aF0.2
aa(lp2764
g100
aF0.241
aa(lp2765
g102
aF0.279
aa(lp2766
g104
aF0.214
aa(lp2767
g106
aF0.252
aa(lp2768
g108
aF0.235
aa(lp2769
g110
aF0.237
aa(lp2770
g112
aF0.166
aa(lp2771
g114
aF0.187
aa(lp2772
g116
aF0.204
aa(lp2773
g118
aF0.234
aasg36
(lp2774
(lp2775
g4
aF0.265
aa(lp2776
g6
aF0.173
aa(lp2777
g8
aF0.254
aa(lp2778
g10
aF0.217
aa(lp2779
g12
aF0.261
aa(lp2780
g14
aF0.218
aa(lp2781
g16
aF0.151
aa(lp2782
g18
aF0.27
aa(lp2783
g20
aF0.238
aa(lp2784
g1
aF0.215
aa(lp2785
g22
aF0.254
aa(lp2786
g24
aF0.191
aa(lp2787
g26
aF0.249
aa(lp2788
g28
aF0.288
aa(lp2789
g30
aF0.254
aa(lp2790
g32
aF0.276
aa(lp2791
g34
aF0.239
aa(lp2792
g38
aF0.224
aa(lp2793
g40
aF0.252
aa(lp2794
g42
aF0.262
aa(lp2795
g44
aF0.263
aa(lp2796
g46
aF0.277
aa(lp2797
g48
aF0.146
aa(lp2798
g50
aF0.218
aa(lp2799
g52
aF0.236
aa(lp2800
g54
aF0.268
aa(lp2801
g56
aF0.22
aa(lp2802
g58
aF0.254
aa(lp2803
g60
aF0.2
aa(lp2804
g62
aF0.196
aa(lp2805
g64
aF0.244
aa(lp2806
g66
aF0.203
aa(lp2807
g68
aF0.243
aa(lp2808
g70
aF0.277
aa(lp2809
g72
aF0.213
aa(lp2810
g74
aF0.243
aa(lp2811
g76
aF0.269
aa(lp2812
g78
aF0.283
aa(lp2813
g80
aF0.192
aa(lp2814
g82
aF0.162
aa(lp2815
g84
aF0.25
aa(lp2816
g86
aF0.226
aa(lp2817
g88
aF0.198
aa(lp2818
g90
aF0.14
aa(lp2819
g92
aF0.191
aa(lp2820
g94
aF0.247
aa(lp2821
g96
aF0.202
aa(lp2822
g98
aF0.207
aa(lp2823
g100
aF0.247
aa(lp2824
g102
aF0.254
aa(lp2825
g104
aF0.224
aa(lp2826
g106
aF0.314
aa(lp2827
g108
aF0.228
aa(lp2828
g110
aF0.232
aa(lp2829
g112
aF0.152
aa(lp2830
g114
aF0.154
aa(lp2831
g116
aF0.25
aa(lp2832
g118
aF0.243
aasg118
(lp2833
(lp2834
g4
aF0.286
aa(lp2835
g6
aF0.186
aa(lp2836
g8
aF0.342
aa(lp2837
g10
aF0.224
aa(lp2838
g12
aF0.222
aa(lp2839
g14
aF0.232
aa(lp2840
g16
aF0.181
aa(lp2841
g18
aF0.261
aa(lp2842
g20
aF0.246
aa(lp2843
g1
aF0.225
aa(lp2844
g22
aF0.227
aa(lp2845
g24
aF0.208
aa(lp2846
g26
aF0.225
aa(lp2847
g28
aF0.241
aa(lp2848
g30
aF0.218
aa(lp2849
g32
aF0.267
aa(lp2850
g34
aF0.249
aa(lp2851
g36
aF0.243
aa(lp2852
g38
aF0.215
aa(lp2853
g40
aF0.206
aa(lp2854
g42
aF0.255
aa(lp2855
g44
aF0.234
aa(lp2856
g46
aF0.227
aa(lp2857
g48
aF0.177
aa(lp2858
g50
aF0.232
aa(lp2859
g52
aF0.265
aa(lp2860
g54
aF0.259
aa(lp2861
g56
aF0.22
aa(lp2862
g58
aF0.244
aa(lp2863
g60
aF0.199
aa(lp2864
g62
aF0.276
aa(lp2865
g64
aF0.218
aa(lp2866
g66
aF0.234
aa(lp2867
g68
aF0.251
aa(lp2868
g70
aF0.248
aa(lp2869
g72
aF0.257
aa(lp2870
g74
aF0.224
aa(lp2871
g76
aF0.259
aa(lp2872
g78
aF0.225
aa(lp2873
g80
aF0.236
aa(lp2874
g82
aF0.172
aa(lp2875
g84
aF0.246
aa(lp2876
g86
aF0.234
aa(lp2877
g88
aF0.182
aa(lp2878
g90
aF0.164
aa(lp2879
g92
aF0.211
aa(lp2880
g94
aF0.225
aa(lp2881
g96
aF0.214
aa(lp2882
g98
aF0.261
aa(lp2883
g100
aF0.247
aa(lp2884
g102
aF0.25
aa(lp2885
g104
aF0.218
aa(lp2886
g106
aF0.257
aa(lp2887
g108
aF0.249
aa(lp2888
g110
aF0.223
aa(lp2889
g112
aF0.165
aa(lp2890
g114
aF0.175
aa(lp2891
g116
aF0.205
aasg8
(lp2892
(lp2893
g4
aF0.298
aa(lp2894
g6
aF0.199
aa(lp2895
g10
aF0.226
aa(lp2896
g12
aF0.235
aa(lp2897
g14
aF0.248
aa(lp2898
g16
aF0.179
aa(lp2899
g18
aF0.287
aa(lp2900
g20
aF0.265
aa(lp2901
g1
aF0.247
aa(lp2902
g22
aF0.242
aa(lp2903
g24
aF0.206
aa(lp2904
g26
aF0.217
aa(lp2905
g28
aF0.259
aa(lp2906
g30
aF0.233
aa(lp2907
g32
aF0.285
aa(lp2908
g34
aF0.246
aa(lp2909
g36
aF0.254
aa(lp2910
g38
aF0.23
aa(lp2911
g40
aF0.225
aa(lp2912
g42
aF0.273
aa(lp2913
g44
aF0.259
aa(lp2914
g46
aF0.239
aa(lp2915
g48
aF0.183
aa(lp2916
g50
aF0.251
aa(lp2917
g52
aF0.279
aa(lp2918
g54
aF0.262
aa(lp2919
g56
aF0.24
aa(lp2920
g58
aF0.255
aa(lp2921
g60
aF0.205
aa(lp2922
g62
aF0.277
aa(lp2923
g64
aF0.222
aa(lp2924
g66
aF0.26
aa(lp2925
g68
aF0.257
aa(lp2926
g70
aF0.265
aa(lp2927
g72
aF0.249
aa(lp2928
g74
aF0.232
aa(lp2929
g76
aF0.258
aa(lp2930
g78
aF0.235
aa(lp2931
g80
aF0.226
aa(lp2932
g82
aF0.177
aa(lp2933
g84
aF0.262
aa(lp2934
g86
aF0.24
aa(lp2935
g88
aF0.205
aa(lp2936
g90
aF0.154
aa(lp2937
g92
aF0.205
aa(lp2938
g94
aF0.233
aa(lp2939
g96
aF0.216
aa(lp2940
g98
aF0.279
aa(lp2941
g100
aF0.24
aa(lp2942
g102
aF0.271
aa(lp2943
g104
aF0.237
aa(lp2944
g106
aF0.265
aa(lp2945
g108
aF0.239
aa(lp2946
g110
aF0.237
aa(lp2947
g112
aF0.159
aa(lp2948
g114
aF0.171
aa(lp2949
g116
aF0.222
aa(lp2950
g118
aF0.342
aasg72
(lp2951
(lp2952
g4
aF0.274
aa(lp2953
g6
aF0.181
aa(lp2954
g8
aF0.249
aa(lp2955
g10
aF0.226
aa(lp2956
g12
aF0.214
aa(lp2957
g14
aF0.22
aa(lp2958
g16
aF0.166
aa(lp2959
g18
aF0.23
aa(lp2960
g20
aF0.218
aa(lp2961
g1
aF0.218
aa(lp2962
g22
aF0.188
aa(lp2963
g24
aF0.195
aa(lp2964
g26
aF0.171
aa(lp2965
g28
aF0.224
aa(lp2966
g30
aF0.221
aa(lp2967
g32
aF0.239
aa(lp2968
g34
aF0.229
aa(lp2969
g36
aF0.213
aa(lp2970
g38
aF0.211
aa(lp2971
g40
aF0.207
aa(lp2972
g42
aF0.24
aa(lp2973
g44
aF0.245
aa(lp2974
g46
aF0.225
aa(lp2975
g48
aF0.196
aa(lp2976
g50
aF0.219
aa(lp2977
g52
aF0.251
aa(lp2978
g54
aF0.235
aa(lp2979
g56
aF0.206
aa(lp2980
g58
aF0.233
aa(lp2981
g60
aF0.196
aa(lp2982
g62
aF0.216
aa(lp2983
g64
aF0.218
aa(lp2984
g66
aF0.223
aa(lp2985
g68
aF0.236
aa(lp2986
g70
aF0.249
aa(lp2987
g74
aF0.229
aa(lp2988
g76
aF0.233
aa(lp2989
g78
aF0.227
aa(lp2990
g80
aF0.189
aa(lp2991
g82
aF0.173
aa(lp2992
g84
aF0.237
aa(lp2993
g86
aF0.232
aa(lp2994
g88
aF0.184
aa(lp2995
g90
aF0.168
aa(lp2996
g92
aF0.181
aa(lp2997
g94
aF0.182
aa(lp2998
g96
aF0.192
aa(lp2999
g98
aF0.201
aa(lp3000
g100
aF0.233
aa(lp3001
g102
aF0.24
aa(lp3002
g104
aF0.195
aa(lp3003
g106
aF0.228
aa(lp3004
g108
aF0.226
aa(lp3005
g110
aF0.239
aa(lp3006
g112
aF0.148
aa(lp3007
g114
aF0.184
aa(lp3008
g116
aF0.201
aa(lp3009
g118
aF0.257
aasg12
(lp3010
(lp3011
g4
aF0.248
aa(lp3012
g6
aF0.204
aa(lp3013
g8
aF0.235
aa(lp3014
g10
aF0.238
aa(lp3015
g14
aF0.219
aa(lp3016
g16
aF0.182
aa(lp3017
g18
aF0.267
aa(lp3018
g20
aF0.249
aa(lp3019
g1
aF0.248
aa(lp3020
g22
aF0.253
aa(lp3021
g24
aF0.211
aa(lp3022
g26
aF0.201
aa(lp3023
g28
aF0.245
aa(lp3024
g30
aF0.266
aa(lp3025
g32
aF0.267
aa(lp3026
g34
aF0.255
aa(lp3027
g36
aF0.261
aa(lp3028
g38
aF0.232
aa(lp3029
g40
aF0.282
aa(lp3030
g42
aF0.26
aa(lp3031
g44
aF0.246
aa(lp3032
g46
aF0.282
aa(lp3033
g48
aF0.159
aa(lp3034
g50
aF0.227
aa(lp3035
g52
aF0.225
aa(lp3036
g54
aF0.235
aa(lp3037
g56
aF0.231
aa(lp3038
g58
aF0.264
aa(lp3039
g60
aF0.26
aa(lp3040
g62
aF0.186
aa(lp3041
g64
aF0.256
aa(lp3042
g66
aF0.211
aa(lp3043
g68
aF0.257
aa(lp3044
g70
aF0.269
aa(lp3045
g72
aF0.214
aa(lp3046
g74
aF0.267
aa(lp3047
g76
aF0.239
aa(lp3048
g78
aF0.275
aa(lp3049
g80
aF0.177
aa(lp3050
g82
aF0.204
aa(lp3051
g84
aF0.227
aa(lp3052
g86
aF0.233
aa(lp3053
g88
aF0.188
aa(lp3054
g90
aF0.153
aa(lp3055
g92
aF0.189
aa(lp3056
g94
aF0.25
aa(lp3057
g96
aF0.199
aa(lp3058
g98
aF0.192
aa(lp3059
g100
aF0.242
aa(lp3060
g102
aF0.259
aa(lp3061
g104
aF0.201
aa(lp3062
g106
aF0.306
aa(lp3063
g108
aF0.265
aa(lp3064
g110
aF0.227
aa(lp3065
g112
aF0.159
aa(lp3066
g114
aF0.15
aa(lp3067
g116
aF0.247
aa(lp3068
g118
aF0.222
aasg22
(lp3069
(lp3070
g4
aF0.237
aa(lp3071
g6
aF0.17
aa(lp3072
g8
aF0.242
aa(lp3073
g10
aF0.202
aa(lp3074
g12
aF0.253
aa(lp3075
g14
aF0.205
aa(lp3076
g16
aF0.146
aa(lp3077
g18
aF0.277
aa(lp3078
g20
aF0.236
aa(lp3079
g1
aF0.196
aa(lp3080
g24
aF0.174
aa(lp3081
g26
aF0.229
aa(lp3082
g28
aF0.249
aa(lp3083
g30
aF0.216
aa(lp3084
g32
aF0.254
aa(lp3085
g34
aF0.199
aa(lp3086
g36
aF0.254
aa(lp3087
g38
aF0.201
aa(lp3088
g40
aF0.233
aa(lp3089
g42
aF0.267
aa(lp3090
g44
aF0.211
aa(lp3091
g46
aF0.255
aa(lp3092
g48
aF0.14
aa(lp3093
g50
aF0.244
aa(lp3094
g52
aF0.227
aa(lp3095
g54
aF0.267
aa(lp3096
g56
aF0.247
aa(lp3097
g58
aF0.217
aa(lp3098
g60
aF0.177
aa(lp3099
g62
aF0.179
aa(lp3100
g64
aF0.201
aa(lp3101
g66
aF0.189
aa(lp3102
g68
aF0.208
aa(lp3103
g70
aF0.206
aa(lp3104
g72
aF0.188
aa(lp3105
g74
aF0.189
aa(lp3106
g76
aF0.209
aa(lp3107
g78
aF0.245
aa(lp3108
g80
aF0.204
aa(lp3109
g82
aF0.157
aa(lp3110
g84
aF0.222
aa(lp3111
g86
aF0.206
aa(lp3112
g88
aF0.185
aa(lp3113
g90
aF0.115
aa(lp3114
g92
aF0.201
aa(lp3115
g94
aF0.271
aa(lp3116
g96
aF0.205
aa(lp3117
g98
aF0.204
aa(lp3118
g100
aF0.216
aa(lp3119
g102
aF0.213
aa(lp3120
g104
aF0.213
aa(lp3121
g106
aF0.262
aa(lp3122
g108
aF0.219
aa(lp3123
g110
aF0.167
aa(lp3124
g112
aF0.15
aa(lp3125
g114
aF0.13
aa(lp3126
g116
aF0.23
aa(lp3127
g118
aF0.227
aasg10
(lp3128
(lp3129
g4
aF0.233
aa(lp3130
g6
aF0.196
aa(lp3131
g8
aF0.226
aa(lp3132
g12
aF0.238
aa(lp3133
g14
aF0.242
aa(lp3134
g16
aF0.186
aa(lp3135
g18
aF0.227
aa(lp3136
g20
aF0.235
aa(lp3137
g1
aF0.207
aa(lp3138
g22
aF0.202
aa(lp3139
g24
aF0.226
aa(lp3140
g26
aF0.209
aa(lp3141
g28
aF0.218
aa(lp3142
g30
aF0.219
aa(lp3143
g32
aF0.213
aa(lp3144
g34
aF0.227
aa(lp3145
g36
aF0.217
aa(lp3146
g38
aF0.192
aa(lp3147
g40
aF0.192
aa(lp3148
g42
aF0.222
aa(lp3149
g44
aF0.229
aa(lp3150
g46
aF0.199
aa(lp3151
g48
aF0.183
aa(lp3152
g50
aF0.214
aa(lp3153
g52
aF0.25
aa(lp3154
g54
aF0.188
aa(lp3155
g56
aF0.221
aa(lp3156
g58
aF0.236
aa(lp3157
g60
aF0.215
aa(lp3158
g62
aF0.2
aa(lp3159
g64
aF0.198
aa(lp3160
g66
aF0.206
aa(lp3161
g68
aF0.233
aa(lp3162
g70
aF0.233
aa(lp3163
g72
aF0.226
aa(lp3164
g74
aF0.22
aa(lp3165
g76
aF0.23
aa(lp3166
g78
aF0.205
aa(lp3167
g80
aF0.193
aa(lp3168
g82
aF0.191
aa(lp3169
g84
aF0.236
aa(lp3170
g86
aF0.242
aa(lp3171
g88
aF0.16
aa(lp3172
g90
aF0.194
aa(lp3173
g92
aF0.204
aa(lp3174
g94
aF0.209
aa(lp3175
g96
aF0.212
aa(lp3176
g98
aF0.212
aa(lp3177
g100
aF0.233
aa(lp3178
g102
aF0.246
aa(lp3179
g104
aF0.196
aa(lp3180
g106
aF0.237
aa(lp3181
g108
aF0.234
aa(lp3182
g110
aF0.218
aa(lp3183
g112
aF0.204
aa(lp3184
g114
aF0.167
aa(lp3185
g116
aF0.181
aa(lp3186
g118
aF0.224
aasg70
(lp3187
(lp3188
g4
aF0.273
aa(lp3189
g6
aF0.185
aa(lp3190
g8
aF0.265
aa(lp3191
g10
aF0.233
aa(lp3192
g12
aF0.269
aa(lp3193
g14
aF0.223
aa(lp3194
g16
aF0.165
aa(lp3195
g18
aF0.267
aa(lp3196
g20
aF0.258
aa(lp3197
g1
aF0.239
aa(lp3198
g22
aF0.206
aa(lp3199
g24
aF0.208
aa(lp3200
g26
aF0.184
aa(lp3201
g28
aF0.274
aa(lp3202
g30
aF0.265
aa(lp3203
g32
aF0.266
aa(lp3204
g34
aF0.278
aa(lp3205
g36
aF0.277
aa(lp3206
g38
aF0.235
aa(lp3207
g40
aF0.248
aa(lp3208
g42
aF0.278
aa(lp3209
g44
aF0.301
aa(lp3210
g46
aF0.284
aa(lp3211
g48
aF0.177
aa(lp3212
g50
aF0.22
aa(lp3213
g52
aF0.241
aa(lp3214
g54
aF0.25
aa(lp3215
g56
aF0.225
aa(lp3216
g58
aF0.269
aa(lp3217
g60
aF0.216
aa(lp3218
g62
aF0.213
aa(lp3219
g64
aF0.273
aa(lp3220
g66
aF0.244
aa(lp3221
g68
aF0.283
aa(lp3222
g72
aF0.249
aa(lp3223
g74
aF0.296
aa(lp3224
g76
aF0.263
aa(lp3225
g78
aF0.291
aa(lp3226
g80
aF0.185
aa(lp3227
g82
aF0.174
aa(lp3228
g84
aF0.246
aa(lp3229
g86
aF0.235
aa(lp3230
g88
aF0.203
aa(lp3231
g90
aF0.154
aa(lp3232
g92
aF0.182
aa(lp3233
g94
aF0.205
aa(lp3234
g96
aF0.201
aa(lp3235
g98
aF0.213
aa(lp3236
g100
aF0.249
aa(lp3237
g102
aF0.295
aa(lp3238
g104
aF0.199
aa(lp3239
g106
aF0.31
aa(lp3240
g108
aF0.232
aa(lp3241
g110
aF0.265
aa(lp3242
g112
aF0.137
aa(lp3243
g114
aF0.192
aa(lp3244
g116
aF0.243
aa(lp3245
g118
aF0.248
aasg64
(lp3246
(lp3247
g4
aF0.236
aa(lp3248
g6
aF0.18
aa(lp3249
g8
aF0.222
aa(lp3250
g10
aF0.198
aa(lp3251
g12
aF0.256
aa(lp3252
g14
aF0.185
aa(lp3253
g16
aF0.16
aa(lp3254
g18
aF0.257
aa(lp3255
g20
aF0.187
aa(lp3256
g1
aF0.247
aa(lp3257
g22
aF0.201
aa(lp3258
g24
aF0.194
aa(lp3259
g26
aF0.176
aa(lp3260
g28
aF0.248
aa(lp3261
g30
aF0.287
aa(lp3262
g32
aF0.247
aa(lp3263
g34
aF0.226
aa(lp3264
g36
aF0.244
aa(lp3265
g38
aF0.249
aa(lp3266
g40
aF0.298
aa(lp3267
g42
aF0.258
aa(lp3268
g44
aF0.261
aa(lp3269
g46
aF0.308
aa(lp3270
g48
aF0.157
aa(lp3271
g50
aF0.178
aa(lp3272
g52
aF0.196
aa(lp3273
g54
aF0.245
aa(lp3274
g56
aF0.175
aa(lp3275
g58
aF0.248
aa(lp3276
g60
aF0.202
aa(lp3277
g62
aF0.167
aa(lp3278
g66
aF0.193
aa(lp3279
g68
aF0.236
aa(lp3280
g70
aF0.273
aa(lp3281
g72
aF0.218
aa(lp3282
g74
aF0.262
aa(lp3283
g76
aF0.25
aa(lp3284
g78
aF0.321
aa(lp3285
g80
aF0.157
aa(lp3286
g82
aF0.165
aa(lp3287
g84
aF0.226
aa(lp3288
g86
aF0.206
aa(lp3289
g88
aF0.208
aa(lp3290
g90
aF0.124
aa(lp3291
g92
aF0.154
aa(lp3292
g94
aF0.202
aa(lp3293
g96
aF0.176
aa(lp3294
g98
aF0.183
aa(lp3295
g100
aF0.227
aa(lp3296
g102
aF0.243
aa(lp3297
g104
aF0.179
aa(lp3298
g106
aF0.285
aa(lp3299
g108
aF0.192
aa(lp3300
g110
aF0.252
aa(lp3301
g112
aF0.122
aa(lp3302
g114
aF0.144
aa(lp3303
g116
aF0.31
aa(lp3304
g118
aF0.218
aasg18
(lp3305
(lp3306
g4
aF0.278
aa(lp3307
g6
aF0.196
aa(lp3308
g8
aF0.287
aa(lp3309
g10
aF0.227
aa(lp3310
g12
aF0.267
aa(lp3311
g14
aF0.217
aa(lp3312
g16
aF0.17
aa(lp3313
g20
aF0.244
aa(lp3314
g1
aF0.242
aa(lp3315
g22
aF0.277
aa(lp3316
g24
aF0.188
aa(lp3317
g26
aF0.207
aa(lp3318
g28
aF0.268
aa(lp3319
g30
aF0.245
aa(lp3320
g32
aF0.289
aa(lp3321
g34
aF0.239
aa(lp3322
g36
aF0.27
aa(lp3323
g38
aF0.226
aa(lp3324
g40
aF0.265
aa(lp3325
g42
aF0.339
aa(lp3326
g44
aF0.256
aa(lp3327
g46
aF0.292
aa(lp3328
g48
aF0.178
aa(lp3329
g50
aF0.25
aa(lp3330
g52
aF0.251
aa(lp3331
g54
aF0.274
aa(lp3332
g56
aF0.238
aa(lp3333
g58
aF0.295
aa(lp3334
g60
aF0.208
aa(lp3335
g62
aF0.209
aa(lp3336
g64
aF0.257
aa(lp3337
g66
aF0.229
aa(lp3338
g68
aF0.25
aa(lp3339
g70
aF0.267
aa(lp3340
g72
aF0.23
aa(lp3341
g74
aF0.253
aa(lp3342
g76
aF0.272
aa(lp3343
g78
aF0.283
aa(lp3344
g80
aF0.212
aa(lp3345
g82
aF0.185
aa(lp3346
g84
aF0.246
aa(lp3347
g86
aF0.239
aa(lp3348
g88
aF0.206
aa(lp3349
g90
aF0.149
aa(lp3350
g92
aF0.189
aa(lp3351
g94
aF0.284
aa(lp3352
g96
aF0.212
aa(lp3353
g98
aF0.249
aa(lp3354
g100
aF0.262
aa(lp3355
g102
aF0.277
aa(lp3356
g104
aF0.224
aa(lp3357
g106
aF0.291
aa(lp3358
g108
aF0.239
aa(lp3359
g110
aF0.227
aa(lp3360
g112
aF0.155
aa(lp3361
g114
aF0.152
aa(lp3362
g116
aF0.274
aa(lp3363
g118
aF0.261
aasg30
(lp3364
(lp3365
g4
aF0.245
aa(lp3366
g6
aF0.179
aa(lp3367
g8
aF0.233
aa(lp3368
g10
aF0.219
aa(lp3369
g12
aF0.266
aa(lp3370
g14
aF0.213
aa(lp3371
g16
aF0.184
aa(lp3372
g18
aF0.245
aa(lp3373
g20
aF0.21
aa(lp3374
g1
aF0.281
aa(lp3375
g22
aF0.216
aa(lp3376
g24
aF0.214
aa(lp3377
g26
aF0.189
aa(lp3378
g28
aF0.249
aa(lp3379
g32
aF0.245
aa(lp3380
g34
aF0.256
aa(lp3381
g36
aF0.254
aa(lp3382
g38
aF0.259
aa(lp3383
g40
aF0.306
aa(lp3384
g42
aF0.253
aa(lp3385
g44
aF0.293
aa(lp3386
g46
aF0.282
aa(lp3387
g48
aF0.172
aa(lp3388
g50
aF0.193
aa(lp3389
g52
aF0.215
aa(lp3390
g54
aF0.244
aa(lp3391
g56
aF0.223
aa(lp3392
g58
aF0.28
aa(lp3393
g60
aF0.254
aa(lp3394
g62
aF0.187
aa(lp3395
g64
aF0.287
aa(lp3396
g66
aF0.217
aa(lp3397
g68
aF0.262
aa(lp3398
g70
aF0.265
aa(lp3399
g72
aF0.221
aa(lp3400
g74
aF0.265
aa(lp3401
g76
aF0.252
aa(lp3402
g78
aF0.274
aa(lp3403
g80
aF0.165
aa(lp3404
g82
aF0.17
aa(lp3405
g84
aF0.242
aa(lp3406
g86
aF0.234
aa(lp3407
g88
aF0.21
aa(lp3408
g90
aF0.137
aa(lp3409
g92
aF0.173
aa(lp3410
g94
aF0.205
aa(lp3411
g96
aF0.201
aa(lp3412
g98
aF0.184
aa(lp3413
g100
aF0.24
aa(lp3414
g102
aF0.274
aa(lp3415
g104
aF0.189
aa(lp3416
g106
aF0.276
aa(lp3417
g108
aF0.234
aa(lp3418
g110
aF0.256
aa(lp3419
g112
aF0.145
aa(lp3420
g114
aF0.156
aa(lp3421
g116
aF0.265
aa(lp3422
g118
aF0.218
aasg98
(lp3423
(lp3424
g4
aF0.232
aa(lp3425
g6
aF0.173
aa(lp3426
g8
aF0.279
aa(lp3427
g10
aF0.212
aa(lp3428
g12
aF0.192
aa(lp3429
g14
aF0.201
aa(lp3430
g16
aF0.149
aa(lp3431
g18
aF0.249
aa(lp3432
g20
aF0.217
aa(lp3433
g1
aF0.214
aa(lp3434
g22
aF0.204
aa(lp3435
g24
aF0.176
aa(lp3436
g26
aF0.198
aa(lp3437
g28
aF0.202
aa(lp3438
g30
aF0.184
aa(lp3439
g32
aF0.214
aa(lp3440
g34
aF0.186
aa(lp3441
g36
aF0.207
aa(lp3442
g38
aF0.195
aa(lp3443
g40
aF0.175
aa(lp3444
g42
aF0.227
aa(lp3445
g44
aF0.197
aa(lp3446
g46
aF0.187
aa(lp3447
g48
aF0.191
aa(lp3448
g50
aF0.219
aa(lp3449
g52
aF0.244
aa(lp3450
g54
aF0.203
aa(lp3451
g56
aF0.218
aa(lp3452
g58
aF0.207
aa(lp3453
g60
aF0.189
aa(lp3454
g62
aF0.232
aa(lp3455
g64
aF0.183
aa(lp3456
g66
aF0.217
aa(lp3457
g68
aF0.209
aa(lp3458
g70
aF0.213
aa(lp3459
g72
aF0.201
aa(lp3460
g74
aF0.187
aa(lp3461
g76
aF0.225
aa(lp3462
g78
aF0.189
aa(lp3463
g80
aF0.21
aa(lp3464
g82
aF0.169
aa(lp3465
g84
aF0.215
aa(lp3466
g86
aF0.2
aa(lp3467
g88
aF0.159
aa(lp3468
g90
aF0.146
aa(lp3469
g92
aF0.182
aa(lp3470
g94
aF0.198
aa(lp3471
g96
aF0.218
aa(lp3472
g100
aF0.205
aa(lp3473
g102
aF0.217
aa(lp3474
g104
aF0.198
aa(lp3475
g106
aF0.207
aa(lp3476
g108
aF0.223
aa(lp3477
g110
aF0.186
aa(lp3478
g112
aF0.164
aa(lp3479
g114
aF0.153
aa(lp3480
g116
aF0.18
aa(lp3481
g118
aF0.261
aasg80
(lp3482
(lp3483
g4
aF0.232
aa(lp3484
g6
aF0.158
aa(lp3485
g8
aF0.226
aa(lp3486
g10
aF0.193
aa(lp3487
g12
aF0.177
aa(lp3488
g14
aF0.185
aa(lp3489
g16
aF0.155
aa(lp3490
g18
aF0.212
aa(lp3491
g20
aF0.191
aa(lp3492
g1
aF0.183
aa(lp3493
g22
aF0.204
aa(lp3494
g24
aF0.166
aa(lp3495
g26
aF0.211
aa(lp3496
g28
aF0.218
aa(lp3497
g30
aF0.165
aa(lp3498
g32
aF0.191
aa(lp3499
g34
aF0.174
aa(lp3500
g36
aF0.192
aa(lp3501
g38
aF0.186
aa(lp3502
g40
aF0.16
aa(lp3503
g42
aF0.196
aa(lp3504
g44
aF0.171
aa(lp3505
g46
aF0.171
aa(lp3506
g48
aF0.165
aa(lp3507
g50
aF0.195
aa(lp3508
g52
aF0.241
aa(lp3509
g54
aF0.209
aa(lp3510
g56
aF0.202
aa(lp3511
g58
aF0.193
aa(lp3512
g60
aF0.178
aa(lp3513
g62
aF0.196
aa(lp3514
g64
aF0.157
aa(lp3515
g66
aF0.188
aa(lp3516
g68
aF0.178
aa(lp3517
g70
aF0.185
aa(lp3518
g72
aF0.189
aa(lp3519
g74
aF0.168
aa(lp3520
g76
aF0.204
aa(lp3521
g78
aF0.166
aa(lp3522
g82
aF0.147
aa(lp3523
g84
aF0.228
aa(lp3524
g86
aF0.187
aa(lp3525
g88
aF0.145
aa(lp3526
g90
aF0.133
aa(lp3527
g92
aF0.223
aa(lp3528
g94
aF0.182
aa(lp3529
g96
aF0.188
aa(lp3530
g98
aF0.21
aa(lp3531
g100
aF0.2
aa(lp3532
g102
aF0.192
aa(lp3533
g104
aF0.226
aa(lp3534
g106
aF0.189
aa(lp3535
g108
aF0.222
aa(lp3536
g110
aF0.166
aa(lp3537
g112
aF0.158
aa(lp3538
g114
aF0.162
aa(lp3539
g116
aF0.161
aa(lp3540
g118
aF0.236
aas.